(dp0
S'agg_cl'
p1
(dp2
I61961025033
F0.24813895781637718
sI61961025054
F0.23310023310023312
sI61960946207
F0.23310023310023312
sI61961025059
F0.23310023310023312
sI61960946218
F0.2403846153846154
scnumpy.core.multiarray
scalar
p3
(cnumpy
dtype
p4
(S'i8'
p5
I0
I1
tp6
Rp7
(I3
S'<'
p8
NNNI-1
I-1
I0
tp9
bS'\xb2\x02fm\x0e\x00\x00\x00'
p10
tp11
Rp12
F0.0
sI61961025073
F0.2107481559536354
sI61964961871
F0.0
sg3
(g7
S'\xba%\x8cW`\x00\x00\x00'
p13
tp14
Rp15
F0.18315018315018314
sI61965020015
F0.0
sg3
(g7
S'\xd5\x8bfm\x0e\x00\x00\x00'
p16
tp17
Rp18
F0.0
sI61964943979
F0.0
sI61964943982
F0.0
sI61964943984
F0.0
sI61964943986
F0.0
sI61964943996
F0.0
sI61964961925
F0.0
sI413791240838
F0.2366863905325444
sI61964961927
F0.0
sI61964972168
F0.0
sI61964944011
F0.0
sI61964944018
F0.0
sI61961024963
F0.2403846153846154
sI61964944027
F0.0
sI61964944035
F0.0
sI61964944038
F0.0
sI61960946349
F0.19230769230769232
sI61964944046
F0.0
sI61961025202
F0.2107481559536354
sI14720303796
F0.0
sI61964944053
F0.0
sI61964944054
F0.0
sI61964944057
F0.0
sg3
(g7
S'\xba\x02fm\x0e\x00\x00\x00'
p19
tp20
Rp21
F0.0
sI61961078559
F0.19980019980019978
sI61964944064
F0.0
sI61964944067
F0.0
sI61961024887
F0.2366863905325444
sI61961353423
F0.21668472372697728
sI61965359909
F0.0
sI413791240929
F0.1586042823156225
sI61964944337
F0.0
sI61961078506
F0.25220680958385877
sI61964944341
F0.0
sI61965359883
F0.0
sI61965359903
F0.0
sI61961263393
F0.0
sI61961078565
F0.2607561929595828
sI61961078566
F0.19980019980019978
sI61961078573
F0.27472527472527475
sI61965359920
F0.0
sI61965019959
F0.0
sI61961024824
F0.2607561929595828
sI61965019962
F0.0
sI61965359937
F0.0
sI61961078595
F0.17889087656529518
sI61965359944
F0.0
sI61965359948
F0.0
sI61965019982
F0.0
sI61965019983
F0.0
sg3
(g7
S'R\x07+m\x0e\x00\x00\x00'
p22
tp23
Rp24
F0.22624434389140274
sI61965019987
F0.0
sI61961024853
F0.21978021978021978
sI61965019992
F0.0
sI61965019994
F0.0
sI61961078619
F0.0
sI61965019996
F0.0
sg3
(g7
S'`[lm\x0e\x00\x00\x00'
p25
tp26
Rp27
F0.0
sI61961024868
F0.25220680958385877
sI61965020009
F0.0
sI61965359983
F0.0
sI61961024881
F0.20242914979757085
sI61965020019
F0.0
sg3
(g7
S't5*m\x0e\x00\x00\x00'
p28
tp29
Rp30
F0.2403846153846154
sI61965020021
F0.0
sg3
(g7
S'v5*m\x0e\x00\x00\x00'
p31
tp32
Rp33
F0.0
sI61965359991
F0.2079002079002079
sg3
(g7
S'x5*m\x0e\x00\x00\x00'
p34
tp35
Rp36
F0.1386001386001386
sI61961024891
F0.22624434389140274
sI61965020029
F0.0
sI61961024911
F0.24813895781637718
sI61961024912
F0.21978021978021978
sI61961024927
F0.25220680958385877
sI61961024929
F0.32733224222585927
sI61961024937
F0.26525198938992045
sI61961024938
F0.22624434389140274
sI61961024943
F0.2366863905325444
sI61965360050
F0.0
sI61961024950
F0.0
sI61961024951
F0.22624434389140274
sI61964944313
F0.0
sI61964979130
F0.0
sI61961024956
F0.2079002079002079
sI61964979139
F0.0
sI61961024968
F0.2136752136752137
sI61964979150
F0.0
sI61964979153
F0.0
sI61964979154
F0.0
sg3
(g7
S'N\x07+m\x0e\x00\x00\x00'
p37
tp38
Rp39
F0.19980019980019978
sI61964979158
F0.0
sI61960619991
F0.22296544035674473
sI61964979163
F0.0
sI61964944350
F0.0
sg3
(g7
S'\xf2\x03fm\x0e\x00\x00\x00'
p40
tp41
Rp42
F0.0
sI413787380563
F0.0
ssS't_deg'
p43
(dp44
I61961025033
g3
(g4
(S'f8'
p45
I0
I1
tp46
Rp47
(I3
S'<'
p48
NNNI-1
I-1
I0
tp49
bS'm\x03\xf4)\xedA\x99?'
p50
tp51
Rp52
sI61961025054
g3
(g47
S'S]9\xb7~D\x90?'
p53
tp54
Rp55
sI61960946207
g3
(g47
S'V\xd4\x18)p\xf7\x9d?'
p56
tp57
Rp58
sI61961025059
g3
(g47
S'\xe5\xdc\xfa\x11A\x1c\x9d?'
p59
tp60
Rp61
sI61960946218
g3
(g47
S'\xe5\xdc\xfa\x11A\x1c\x8d?'
p62
tp63
Rp64
sg12
g3
(g47
S'\x00\x00\x00\x00\x00\x00\x00\x00'
p65
tp66
Rp67
sI61961025073
g3
(g47
S'd!\x0bY\xc8Bv?'
p68
tp69
Rp70
sI61964961871
g3
(g47
S'\x00\x00\x00\x00\x00\x00\x00\x00'
p71
tp72
Rp73
sg15
g3
(g47
S'\x05\xee\xbe\xe3\xe2eK?'
p74
tp75
Rp76
sI61965020015
g3
(g47
S'\x00\x00\x00\x00\x00\x00\x00\x00'
p77
tp78
Rp79
sg18
g3
(g47
S'\x00\x00\x00\x00\x00\x00\x00\x00'
p80
tp81
Rp82
sI61964943979
g3
(g47
S'\x00\x00\x00\x00\x00\x00\x00\x00'
p83
tp84
Rp85
sI61964943982
g3
(g47
S'\x00\x00\x00\x00\x00\x00\x00\x00'
p86
tp87
Rp88
sI61964943984
g3
(g47
S'\x00\x00\x00\x00\x00\x00\x00\x00'
p89
tp90
Rp91
sI61964943986
g3
(g47
S'\x00\x00\x00\x00\x00\x00\x00\x00'
p92
tp93
Rp94
sI61964943996
g3
(g47
S'\x00\x00\x00\x00\x00\x00\x00\x00'
p95
tp96
Rp97
sI61964961925
g3
(g47
S'\x00\x00\x00\x00\x00\x00\x00\x00'
p98
tp99
Rp100
sI413791240838
g3
(g47
S'\xe5\xdc\xfa\x11A\x1c\x8d?'
p101
tp102
Rp103
sI61964961927
g3
(g47
S'\x00\x00\x00\x00\x00\x00\x00\x00'
p104
tp105
Rp106
sI61964972168
g3
(g47
S'\x00\x00\x00\x00\x00\x00\x00\x00'
p107
tp108
Rp109
sI61964944011
g3
(g47
S'\x00\x00\x00\x00\x00\x00\x00\x00'
p110
tp111
Rp112
sI61964944018
g3
(g47
S'\x00\x00\x00\x00\x00\x00\x00\x00'
p113
tp114
Rp115
sI61961024963
g3
(g47
S'\x1c\x1d\x9a\xe4_\xb0\x96?'
p116
tp117
Rp118
sI61964944027
g3
(g47
S'\x00\x00\x00\x00\x00\x00\x00\x00'
p119
tp120
Rp121
sI61964944035
g3
(g47
S'\x00\x00\x00\x00\x00\x00\x00\x00'
p122
tp123
Rp124
sI61964944038
g3
(g47
S'\x00\x00\x00\x00\x00\x00\x00\x00'
p125
tp126
Rp127
sI61960946349
g3
(g47
S'\xa4C\x93\xfc\x0b\xd6r?'
p128
tp129
Rp130
sI61964944046
g3
(g47
S'\x00\x00\x00\x00\x00\x00\x00\x00'
p131
tp132
Rp133
sI61961025202
g3
(g47
S'\xb5\x07e\x9eU\xd4\x88?'
p134
tp135
Rp136
sI14720303796
g3
(g47
S'\x00\x00\x00\x00\x00\x00\x00\x00'
p137
tp138
Rp139
sI61964944053
g3
(g47
S'\x00\x00\x00\x00\x00\x00\x00\x00'
p140
tp141
Rp142
sI61964944054
g3
(g47
S'\x00\x00\x00\x00\x00\x00\x00\x00'
p143
tp144
Rp145
sI61964944057
g3
(g47
S'\x00\x00\x00\x00\x00\x00\x00\x00'
p146
tp147
Rp148
sg21
g3
(g47
S'\x00\x00\x00\x00\x00\x00\x00\x00'
p149
tp150
Rp151
sI61961078559
g3
(g47
S'\x842\xcf*j\x8ct?'
p152
tp153
Rp154
sI61964944064
g3
(g47
S'\x00\x00\x00\x00\x00\x00\x00\x00'
p155
tp156
Rp157
sI61964944067
g3
(g47
S'\x00\x00\x00\x00\x00\x00\x00\x00'
p158
tp159
Rp160
sI61961024887
g3
(g47
S'\x8c\x14\xb8\xfb\x8e\x8b\x97?'
p161
tp162
Rp163
sI61961353423
g3
(g47
S'\x842\xcf*j\x8c\x84?'
p164
tp165
Rp166
sI61965359909
g3
(g47
S'\x00\x00\x00\x00\x00\x00\x00\x00'
p167
tp168
Rp169
sI413791240929
g3
(g47
S'\x05\xee\xbe\xe3\xe2e;?'
p170
tp171
Rp172
sI61964944337
g3
(g47
S'\x00\x00\x00\x00\x00\x00\x00\x00'
p173
tp174
Rp175
sI61961078506
g3
(g47
S'\x1c\x1d\x9a\xe4_\xb0\xa6?'
p176
tp177
Rp178
sI61964944341
g3
(g47
S'\x00\x00\x00\x00\x00\x00\x00\x00'
p179
tp180
Rp181
sI61965359883
g3
(g47
S'\x00\x00\x00\x00\x00\x00\x00\x00'
p182
tp183
Rp184
sI61965359903
g3
(g47
S'\x00\x00\x00\x00\x00\x00\x00\x00'
p185
tp186
Rp187
sI61961263393
g3
(g47
S'\x00\x00\x00\x00\x00\x00\x00\x00'
p188
tp189
Rp190
sI61961078565
g3
(g47
S'<.^\xb6\x01\xfa\x94?'
p191
tp192
Rp193
sI61961078566
g3
(g47
S'3Lu\xe5\xdc\xfa\x81?'
p194
tp195
Rp196
sI61961078573
g3
(g47
S'\xe5\xdc\xfa\x11A\x1c\x9d?'
p197
tp198
Rp199
sI61965359920
g3
(g47
S'\x00\x00\x00\x00\x00\x00\x00\x00'
p200
tp201
Rp202
sI61965019959
g3
(g47
S'\x00\x00\x00\x00\x00\x00\x00\x00'
p203
tp204
Rp205
sI61961024824
g3
(g47
S'~\xc7\xc5\xcb6@\x9f?'
p206
tp207
Rp208
sI61965019962
g3
(g47
S'\x00\x00\x00\x00\x00\x00\x00\x00'
p209
tp210
Rp211
sI61965359937
g3
(g47
S'\x00\x00\x00\x00\x00\x00\x00\x00'
p212
tp213
Rp214
sI61961078595
g3
(g47
S'\x842\xcf*j\x8ct?'
p215
tp216
Rp217
sI61965359944
g3
(g47
S'\x00\x00\x00\x00\x00\x00\x00\x00'
p218
tp219
Rp220
sI61965359948
g3
(g47
S'\x00\x00\x00\x00\x00\x00\x00\x00'
p221
tp222
Rp223
sI61965019982
g3
(g47
S'\x00\x00\x00\x00\x00\x00\x00\x00'
p224
tp225
Rp226
sI61965019983
g3
(g47
S'\x00\x00\x00\x00\x00\x00\x00\x00'
p227
tp228
Rp229
sg24
g3
(g47
S'\xc6\xcb6@\x9f\xd2\x8e?'
p230
tp231
Rp232
sI61965019987
g3
(g47
S'\x00\x00\x00\x00\x00\x00\x00\x00'
p233
tp234
Rp235
sI61961024853
g3
(g47
S'D\x10G\x87&\xf9\x87?'
p236
tp237
Rp238
sI61965019992
g3
(g47
S'\x00\x00\x00\x00\x00\x00\x00\x00'
p239
tp240
Rp241
sI61965019994
g3
(g47
S'\x00\x00\x00\x00\x00\x00\x00\x00'
p242
tp243
Rp244
sI61961078619
g3
(g47
S'\x00\x00\x00\x00\x00\x00\x00\x00'
p245
tp246
Rp247
sI61965019996
g3
(g47
S'\x00\x00\x00\x00\x00\x00\x00\x00'
p248
tp249
Rp250
sg27
g3
(g47
S'\x00\x00\x00\x00\x00\x00\x00\x00'
p251
tp252
Rp253
sI61961024868
g3
(g47
S'D\x10G\x87&\xf9\x97?'
p254
tp255
Rp256
sI61965020009
g3
(g47
S'\x00\x00\x00\x00\x00\x00\x00\x00'
p257
tp258
Rp259
sI61965359983
g3
(g47
S'\x00\x00\x00\x00\x00\x00\x00\x00'
p260
tp261
Rp262
sI61961024881
g3
(g47
S'\x842\xcf*j\x8ct?'
p263
tp264
Rp265
sI61965020019
g3
(g47
S'\x00\x00\x00\x00\x00\x00\x00\x00'
p266
tp267
Rp268
sg30
g3
(g47
S'\xebG\x04qth\x92?'
p269
tp270
Rp271
sI61965020021
g3
(g47
S'\x00\x00\x00\x00\x00\x00\x00\x00'
p272
tp273
Rp274
sg33
g3
(g47
S'\x00\x00\x00\x00\x00\x00\x00\x00'
p275
tp276
Rp277
sI61965359991
g3
(g47
S'%\xff\x82\xb5\x84\xafy?'
p278
tp279
Rp280
sg36
g3
(g47
S'\x05\xee\xbe\xe3\xe2eK?'
p281
tp282
Rp283
sI61961024891
g3
(g47
S'\xd4\x18)p\xf7\x1d\x97?'
p284
tp285
Rp286
sI61965020029
g3
(g47
S'\x00\x00\x00\x00\x00\x00\x00\x00'
p287
tp288
Rp289
sI61961024911
g3
(g47
S'%\xff\x82\xb5\x84\xaf\x89?'
p290
tp291
Rp292
sI61961024912
g3
(g47
S'3Lu\xe5\xdc\xfa\x81?'
p293
tp294
Rp295
sI61961024927
g3
(g47
S'\xc3TW\xce\xad\x1f\x91?'
p296
tp297
Rp298
sI61961024929
g3
(g47
S'\t_3Lu\xe5\xac?'
p299
tp300
Rp301
sI61961024937
g3
(g47
S'-\xe1k\x86\xa9\xae\x9c?'
p302
tp303
Rp304
sI61961024938
g3
(g47
S'D\x10G\x87&\xf9\x87?'
p305
tp306
Rp307
sI61961024943
g3
(g47
S'\xdd\xfa\x11A\x1c\x1d\x9a?'
p308
tp309
Rp310
sI61965360050
g3
(g47
S'\x00\x00\x00\x00\x00\x00\x00\x00'
p311
tp312
Rp313
sI61961024950
g3
(g47
S'\x00\x00\x00\x00\x00\x00\x00\x00'
p314
tp315
Rp316
sI61961024951
g3
(g47
S'\xebG\x04qth\x92?'
p317
tp318
Rp319
sI61964944313
g3
(g47
S'\x00\x00\x00\x00\x00\x00\x00\x00'
p320
tp321
Rp322
sI61964979130
g3
(g47
S'\x00\x00\x00\x00\x00\x00\x00\x00'
p323
tp324
Rp325
sI61961024956
g3
(g47
S'\xb5\x07e\x9eU\xd4\x88?'
p326
tp327
Rp328
sI61964979139
g3
(g47
S'\x00\x00\x00\x00\x00\x00\x00\x00'
p329
tp330
Rp331
sI61961024968
g3
(g47
S'D\x10G\x87&\xf9\x87?'
p332
tp333
Rp334
sI61964979150
g3
(g47
S'\x00\x00\x00\x00\x00\x00\x00\x00'
p335
tp336
Rp337
sI61964979153
g3
(g47
S'\x00\x00\x00\x00\x00\x00\x00\x00'
p338
tp339
Rp340
sI61964979154
g3
(g47
S'\x00\x00\x00\x00\x00\x00\x00\x00'
p341
tp342
Rp343
sg39
g3
(g47
S'\x05\xee\xbe\xe3\xe2e{?'
p344
tp345
Rp346
sI61964979158
g3
(g47
S'\x00\x00\x00\x00\x00\x00\x00\x00'
p347
tp348
Rp349
sI61960619991
g3
(g47
S'\xf4)\xedA\x99g\x95?'
p350
tp351
Rp352
sI61964979163
g3
(g47
S'\x00\x00\x00\x00\x00\x00\x00\x00'
p353
tp354
Rp355
sI61964944350
g3
(g47
S'\x00\x00\x00\x00\x00\x00\x00\x00'
p356
tp357
Rp358
sg42
g3
(g47
S'\x00\x00\x00\x00\x00\x00\x00\x00'
p359
tp360
Rp361
sI413787380563
g3
(g47
S'\x00\x00\x00\x00\x00\x00\x00\x00'
p362
tp363
Rp364
ssS'avg_bt'
p365
(dp366
I61961025033
F0.0022142517631271075
sI61961025054
F0.0015601916894271923
sI61960946207
F0.0027892663093619643
sI61961025059
F0.001252341901029402
sI61960946218
F0.0003822540593390651
sg12
F0.0
sI61961025073
F0.000520331521250251
sI61964961871
F0.0
sg15
F0.0
sI61965020015
F0.0
sg18
F0.0
sI61964943979
F0.0
sI61964943982
F0.0
sI61964943984
F0.0
sI61964943986
F0.0
sI61964943996
F0.0
sI61964961925
F0.0
sI413791240838
F0.0014441473913729234
sI61964961927
F0.0
sI61964972168
F0.0
sI61964944011
F0.0
sI61964944018
F0.0
sI61961024963
F0.004253003509751793
sI61964944027
F0.0
sI61964944035
F0.0
sI61964944038
F0.0
sI61960946349
F0.0003297547277074504
sI61964944046
F0.0
sI61961025202
F0.0011623709412860955
sI14720303796
F0.0
sI61964944053
F0.0
sI61964944054
F0.0
sI61964944057
F0.0
sg21
F0.0
sI61961078559
F0.0010096971763286665
sI61964944064
F0.0
sI61964944067
F0.0
sI61961024887
F0.0008802645520704226
sI61961353423
F0.0003718652630342115
sI61965359909
F0.0
sI413791240929
F0.0
sI61964944337
F0.0
sI61961078506
F0.003513196409868592
sI61964944341
F0.0
sI61965359883
F0.0
sI61965359903
F0.0
sI61961263393
F0.0
sI61961078565
F0.0006982489514340988
sI61961078566
F0.00016634572072350486
sI61961078573
F0.001480624143240848
sI61965359920
F0.0
sI61965019959
F0.0
sI61961024824
F0.004272620913577757
sI61965019962
F0.0
sI61965359937
F0.0
sI61961078595
F0.00017980981918932332
sI61965359944
F0.0
sI61965359948
F0.0
sI61965019982
F0.0
sI61965019983
F0.0
sg24
F0.0006807689155138962
sI61965019987
F0.0
sI61961024853
F0.0011046155348765994
sI61965019992
F0.0
sI61965019994
F0.0
sI61961078619
F0.0
sI61965019996
F0.0
sg27
F0.0
sI61961024868
F0.0028008042250606377
sI61965020009
F0.0
sI61965359983
F0.0
sI61961024881
F0.0002647653106707561
sI61965020019
F0.0
sg30
F0.0012198369330471974
sI61965020021
F0.0
sg33
F0.0
sI61965359991
F0.00029616331325913435
sg36
F0.0
sI61961024891
F0.0005917581711814906
sI61965020029
F0.0
sI61961024911
F0.0006032376550843804
sI61961024912
F0.0008184499086616177
sI61961024927
F0.001274995013132968
sI61961024929
F0.005242586948204889
sI61961024937
F0.003121179022521589
sI61961024938
F0.0010286307769440603
sI61961024943
F0.0022604259131408567
sI61965360050
F0.0
sI61961024950
F0.0
sI61961024951
F0.004724096081208787
sI61964944313
F0.0
sI61964979130
F0.0
sI61961024956
F0.000391964636655678
sI61964979139
F0.0
sI61961024968
F0.0010401561885985352
sI61964979150
F0.0
sI61964979153
F0.0
sI61964979154
F0.0
sg39
F0.0003494597073111214
sI61964979158
F0.0
sI61960619991
F0.0010893550697357803
sI61964979163
F0.0
sI61964944350
F0.0
sg42
F0.0
sI413787380563
F0.0
ssS't_bt'
p367
(dp368
I61961025033
g3
(g47
S'OE\xae\x9f]c\xdb?'
p369
tp370
Rp371
sI61961025054
g3
(g47
S'\xfd1\x0c\xc2\xec\xdf\xd7?'
p372
tp373
Rp374
sI61960946207
g3
(g47
S'\x86\xea;\xca\xf2\xe0\xe5?'
p375
tp376
Rp377
sI61961025059
g3
(g47
S'V\xcd\x19\xaa\x9e\xcf\xd9?'
p378
tp379
Rp380
sI61960946218
g3
(g47
S'\x0f\xbe\x8f\xe8\n\x1b\xbb?'
p381
tp382
Rp383
sg12
g3
(g47
S'\x00\x00\x00\x00\x00\x00\x00\x00'
p384
tp385
Rp386
sI61961025073
g3
(g47
S'}r\xdf\xc9\x11\x1f\xbd?'
p387
tp388
Rp389
sI61964961871
g3
(g47
S'\x00\x00\x00\x00\x00\x00\x00\x00'
p390
tp391
Rp392
sg15
g3
(g47
S'\x00\x00\x00\x00\x00\x00\x00\x00'
p393
tp394
Rp395
sI61965020015
g3
(g47
S'\x00\x00\x00\x00\x00\x00\x00\x00'
p396
tp397
Rp398
sg18
g3
(g47
S'\x00\x00\x00\x00\x00\x00\x00\x00'
p399
tp400
Rp401
sI61964943979
g3
(g47
S'\x00\x00\x00\x00\x00\x00\x00\x00'
p402
tp403
Rp404
sI61964943982
g3
(g47
S'\x00\x00\x00\x00\x00\x00\x00\x00'
p405
tp406
Rp407
sI61964943984
g3
(g47
S'\x00\x00\x00\x00\x00\x00\x00\x00'
p408
tp409
Rp410
sI61964943986
g3
(g47
S'\x00\x00\x00\x00\x00\x00\x00\x00'
p411
tp412
Rp413
sI61964943996
g3
(g47
S'\x00\x00\x00\x00\x00\x00\x00\x00'
p414
tp415
Rp416
sI61964961925
g3
(g47
S'\x00\x00\x00\x00\x00\x00\x00\x00'
p417
tp418
Rp419
sI413791240838
g3
(g47
S'?S\xbc\x00f2\xd0?'
p420
tp421
Rp422
sI61964961927
g3
(g47
S'\x00\x00\x00\x00\x00\x00\x00\x00'
p423
tp424
Rp425
sI61964972168
g3
(g47
S'\x00\x00\x00\x00\x00\x00\x00\x00'
p426
tp427
Rp428
sI61964944011
g3
(g47
S'\x00\x00\x00\x00\x00\x00\x00\x00'
p429
tp430
Rp431
sI61964944018
g3
(g47
S'\x00\x00\x00\x00\x00\x00\x00\x00'
p432
tp433
Rp434
sI61961024963
g3
(g47
S'\\\xce\xfe\xc3bz\xe7?'
p435
tp436
Rp437
sI61964944027
g3
(g47
S'\x00\x00\x00\x00\x00\x00\x00\x00'
p438
tp439
Rp440
sI61964944035
g3
(g47
S'\x00\x00\x00\x00\x00\x00\x00\x00'
p441
tp442
Rp443
sI61964944038
g3
(g47
S'\x00\x00\x00\x00\x00\x00\x00\x00'
p444
tp445
Rp446
sI61960946349
g3
(g47
S'\xb0\xd8\xf3H:\xf0\xa5?'
p447
tp448
Rp449
sI61964944046
g3
(g47
S'\x00\x00\x00\x00\x00\x00\x00\x00'
p450
tp451
Rp452
sI61961025202
g3
(g47
S'\xb8E\x05\x1cH9\xcb?'
p453
tp454
Rp455
sI14720303796
g3
(g47
S'\x00\x00\x00\x00\x00\x00\x00\x00'
p456
tp457
Rp458
sI61964944053
g3
(g47
S'\x00\x00\x00\x00\x00\x00\x00\x00'
p459
tp460
Rp461
sI61964944054
g3
(g47
S'\x00\x00\x00\x00\x00\x00\x00\x00'
p462
tp463
Rp464
sI61964944057
g3
(g47
S'\x00\x00\x00\x00\x00\x00\x00\x00'
p465
tp466
Rp467
sg21
g3
(g47
S'\x00\x00\x00\x00\x00\x00\x00\x00'
p468
tp469
Rp470
sI61961078559
g3
(g47
S'<\xed~D\xa3:\xd2?'
p471
tp472
Rp473
sI61964944064
g3
(g47
S'\x00\x00\x00\x00\x00\x00\x00\x00'
p474
tp475
Rp476
sI61964944067
g3
(g47
S'\x00\x00\x00\x00\x00\x00\x00\x00'
p477
tp478
Rp479
sI61961024887
g3
(g47
S"\xb4\xd5\xfc';\x10\xd5?"
p480
tp481
Rp482
sI61961353423
g3
(g47
S"\xd6W'a\xb9E\xb7?"
p483
tp484
Rp485
sI61965359909
g3
(g47
S'\x00\x00\x00\x00\x00\x00\x00\x00'
p486
tp487
Rp488
sI413791240929
g3
(g47
S'\x00\x00\x00\x00\x00\x00\x00\x00'
p489
tp490
Rp491
sI61964944337
g3
(g47
S'\x00\x00\x00\x00\x00\x00\x00\x00'
p492
tp493
Rp494
sI61961078506
g3
(g47
S'4$\xe9\x16_\xfb\xf1?'
p495
tp496
Rp497
sI61964944341
g3
(g47
S'\x00\x00\x00\x00\x00\x00\x00\x00'
p498
tp499
Rp500
sI61965359883
g3
(g47
S'\x00\x00\x00\x00\x00\x00\x00\x00'
p501
tp502
Rp503
sI61965359903
g3
(g47
S'\x00\x00\x00\x00\x00\x00\x00\x00'
p504
tp505
Rp506
sI61961263393
g3
(g47
S'\x00\x00\x00\x00\x00\x00\x00\x00'
p507
tp508
Rp509
sI61961078565
g3
(g47
S'\xe3\x1c\xdb\xbe\xf0A\xc2?'
p510
tp511
Rp512
sI61961078566
g3
(g47
S'sP#\x19\xc1v\x95?'
p513
tp514
Rp515
sI61961078573
g3
(g47
S'\xf5k\xf8\x81\xcc\x81\xd5?'
p516
tp517
Rp518
sI61965359920
g3
(g47
S'\x00\x00\x00\x00\x00\x00\x00\x00'
p519
tp520
Rp521
sI61965019959
g3
(g47
S'\x00\x00\x00\x00\x00\x00\x00\x00'
p522
tp523
Rp524
sI61961024824
g3
(g47
S':\xa0\xceq\xcb?\xef?'
p525
tp526
Rp527
sI61965019962
g3
(g47
S'\x00\x00\x00\x00\x00\x00\x00\x00'
p528
tp529
Rp530
sI61965359937
g3
(g47
S'\x00\x00\x00\x00\x00\x00\x00\x00'
p531
tp532
Rp533
sI61961078595
g3
(g47
S'\x92D_\xdd\x82\xbd\xb9?'
p534
tp535
Rp536
sI61965359944
g3
(g47
S'\x00\x00\x00\x00\x00\x00\x00\x00'
p537
tp538
Rp539
sI61965359948
g3
(g47
S'\x00\x00\x00\x00\x00\x00\x00\x00'
p540
tp541
Rp542
sI61965019982
g3
(g47
S'\x00\x00\x00\x00\x00\x00\x00\x00'
p543
tp544
Rp545
sI61965019983
g3
(g47
S'\x00\x00\x00\x00\x00\x00\x00\x00'
p546
tp547
Rp548
sg24
g3
(g47
S'\x8dM\xa1\xb5\\\xd5\xae?'
p549
tp550
Rp551
sI61965019987
g3
(g47
S'\x00\x00\x00\x00\x00\x00\x00\x00'
p552
tp553
Rp554
sI61961024853
g3
(g47
S'\x1a/\x84J\x1a\xb9\xc4?'
p555
tp556
Rp557
sI61965019992
g3
(g47
S'\x00\x00\x00\x00\x00\x00\x00\x00'
p558
tp559
Rp560
sI61965019994
g3
(g47
S'\x00\x00\x00\x00\x00\x00\x00\x00'
p561
tp562
Rp563
sI61961078619
g3
(g47
S'\x00\x00\x00\x00\x00\x00\x00\x00'
p564
tp565
Rp566
sI61965019996
g3
(g47
S'\x00\x00\x00\x00\x00\x00\x00\x00'
p567
tp568
Rp569
sg27
g3
(g47
S'\x00\x00\x00\x00\x00\x00\x00\x00'
p570
tp571
Rp572
sI61961024868
g3
(g47
S'H\x1a\xde\xc6%\x88\xdf?'
p573
tp574
Rp575
sI61965020009
g3
(g47
S'\x00\x00\x00\x00\x00\x00\x00\x00'
p576
tp577
Rp578
sI61965359983
g3
(g47
S'\x00\x00\x00\x00\x00\x00\x00\x00'
p579
tp580
Rp581
sI61961024881
g3
(g47
S'\x82"\xeb\x9dz\x82\xaf?'
p582
tp583
Rp584
sI61965020019
g3
(g47
S'\x00\x00\x00\x00\x00\x00\x00\x00'
p585
tp586
Rp587
sg30
g3
(g47
S'\xa3\x1a"4\xdc1\xc1?'
p588
tp589
Rp590
sI61965020021
g3
(g47
S'\x00\x00\x00\x00\x00\x00\x00\x00'
p591
tp592
Rp593
sg33
g3
(g47
S'\x00\x00\x00\x00\x00\x00\x00\x00'
p594
tp595
Rp596
sI61965359991
g3
(g47
S"\x11\xbb\x1d'\xcc\x9a\xba?"
p597
tp598
Rp599
sg36
g3
(g47
S'\x00\x00\x00\x00\x00\x00\x00\x00'
p600
tp601
Rp602
sI61961024891
g3
(g47
S'V\xb0\x90x\x9e\x89\xd0?'
p603
tp604
Rp605
sI61965020029
g3
(g47
S'\x00\x00\x00\x00\x00\x00\x00\x00'
p606
tp607
Rp608
sI61961024911
g3
(g47
S'8\xda\x0f<\x94\t\xc3?'
p609
tp610
Rp611
sI61961024912
g3
(g47
S'\xfd\xce\x86x\xdc\xe3\xc5?'
p612
tp613
Rp614
sI61961024927
g3
(g47
S'\xfa\xba\x8aj\xcb\xce\xc5?'
p615
tp616
Rp617
sI61961024929
g3
(g47
S'U\xa8?KU{\x04@'
p618
tp619
Rp620
sI61961024937
g3
(g47
S'N\xe1\xb7\xa6\xea\x8f\xe1?'
p621
tp622
Rp623
sI61961024938
g3
(g47
S'\x11g\xca\x83\xa1\x96\xd2?'
p624
tp625
Rp626
sI61961024943
g3
(g47
S'Jl\xb2\xcf\xa5\xdc\xe7?'
p627
tp628
Rp629
sI61965360050
g3
(g47
S'\x00\x00\x00\x00\x00\x00\x00\x00'
p630
tp631
Rp632
sI61961024950
g3
(g47
S'\x00\x00\x00\x00\x00\x00\x00\x00'
p633
tp634
Rp635
sI61961024951
g3
(g47
S'\xb4\x184\xfe\x05\xe0\xef?'
p636
tp637
Rp638
sI61964944313
g3
(g47
S'\x00\x00\x00\x00\x00\x00\x00\x00'
p639
tp640
Rp641
sI61964979130
g3
(g47
S'\x00\x00\x00\x00\x00\x00\x00\x00'
p642
tp643
Rp644
sI61961024956
g3
(g47
S'\xdb\xe6\nj\xd8f\xb7?'
p645
tp646
Rp647
sI61964979139
g3
(g47
S'\x00\x00\x00\x00\x00\x00\x00\x00'
p648
tp649
Rp650
sI61961024968
g3
(g47
S'\xadMp\xa3y\x85\xd1?'
p651
tp652
Rp653
sI61964979150
g3
(g47
S'\x00\x00\x00\x00\x00\x00\x00\x00'
p654
tp655
Rp656
sI61964979153
g3
(g47
S'\x00\x00\x00\x00\x00\x00\x00\x00'
p657
tp658
Rp659
sI61964979154
g3
(g47
S'\x00\x00\x00\x00\x00\x00\x00\x00'
p660
tp661
Rp662
sg39
g3
(g47
S'%E\xa6\x91\xc9,\xae?'
p663
tp664
Rp665
sI61964979158
g3
(g47
S'\x00\x00\x00\x00\x00\x00\x00\x00'
p666
tp667
Rp668
sI61960619991
g3
(g47
S'0\x80J,\x04\\\xcb?'
p669
tp670
Rp671
sI61964979163
g3
(g47
S'\x00\x00\x00\x00\x00\x00\x00\x00'
p672
tp673
Rp674
sI61964944350
g3
(g47
S'\x00\x00\x00\x00\x00\x00\x00\x00'
p675
tp676
Rp677
sg42
g3
(g47
S'\x00\x00\x00\x00\x00\x00\x00\x00'
p678
tp679
Rp680
sI413787380563
g3
(g47
S'\x00\x00\x00\x00\x00\x00\x00\x00'
p681
tp682
Rp683
ssS'avg_deg'
p684
(dp685
I61961025033
F0.02466555183946488
sI61961025054
F0.01588628762541806
sI61960946207
F0.029264214046822744
sI61961025059
F0.029264214046822737
sI61960946218
F0.014214046822742476
sg12
F0.0
sI61961025073
F0.005434782608695653
sI61964961871
F0.0
sg15
F0.0008361204013377927
sI61965020015
F0.0
sg18
F0.0
sI61964943979
F0.0
sI61964943982
F0.0
sI61964943984
F0.0
sI61964943986
F0.0
sI61964943996
F0.0
sI61964961925
F0.0
sI413791240838
F0.014214046822742474
sI61964961927
F0.0
sI61964972168
F0.0
sI61964944011
F0.0
sI61964944018
F0.0
sI61961024963
F0.022157190635451508
sI61964944027
F0.0
sI61964944035
F0.0
sI61964944038
F0.0
sI61960946349
F0.00459866220735786
sI61964944046
F0.0
sI61961025202
F0.014214046822742474
sI14720303796
F0.0
sI61964944053
F0.0
sI61964944054
F0.0
sI61964944057
F0.0
sg21
F0.0
sI61961078559
F0.005016722408026756
sI61964944064
F0.0
sI61964944067
F0.0
sI61961024887
F0.0229933110367893
sI61961353423
F0.010033444816053512
sI61965359909
F0.0
sI413791240929
F0.00041806020066889637
sI61964944337
F0.0
sI61961078506
F0.050585284280936456
sI61964944341
F0.0
sI61965359883
F0.0
sI61965359903
F0.0
sI61961263393
F0.0
sI61961078565
F0.02048494983277592
sI61961078566
F0.008779264214046824
sI61961078573
F0.030100334448160532
sI61965359920
F0.0
sI61965019959
F0.0
sI61961024824
F0.030518394648829435
sI61965019962
F0.0
sI61965359937
F0.0
sI61961078595
F0.005016722408026756
sI61965359944
F0.0
sI61965359948
F0.0
sI61965019982
F0.0
sI61965019983
F0.0
sg24
F0.01505016722408027
sI61965019987
F0.0
sI61961024853
F0.012541806020066888
sI61965019992
F0.0
sI61965019994
F0.0
sI61961078619
F0.0
sI61965019996
F0.0
sg27
F0.0
sI61961024868
F0.024247491638795984
sI61965020009
F0.0
sI61965359983
F0.0
sI61961024881
F0.005016722408026756
sI61965020019
F0.0
sg30
F0.01797658862876254
sI61965020021
F0.0
sg33
F0.0
sI61965359991
F0.006270903010033445
sg36
F0.0008361204013377927
sI61961024891
F0.0225752508361204
sI61965020029
F0.0
sI61961024911
F0.01254180602006689
sI61961024912
F0.008779264214046824
sI61961024927
F0.016722408026755852
sI61961024929
F0.06438127090301003
sI61961024937
F0.03219063545150502
sI61961024938
F0.011705685618729098
sI61961024943
F0.025501672240802676
sI61965360050
F0.0
sI61961024950
F0.0
sI61961024951
F0.01839464882943144
sI61964944313
F0.0
sI61964979130
F0.0
sI61961024956
F0.012123745819397992
sI61964979139
F0.0
sI61961024968
F0.011705685618729096
sI61964979150
F0.0
sI61964979153
F0.0
sI61964979154
F0.0
sg39
F0.0225752508361204
sI61964979158
F0.0
sI61960619991
F0.020903010033444816
sI61964979163
F0.0
sI61964944350
F0.0
sg42
F0.0
sI413787380563
F0.0
ssS't_cl'
p686
(dp687
I61961025033
g3
(g47
S'y\x99\xe8#h\xb9\xb3?'
p688
tp689
Rp690
sI61961025054
g3
(g47
S'\xfd{\xde\x8e\xd6\n\xb4?'
p691
tp692
Rp693
sI61960946207
g3
(g47
S'\xac@R\r\x1c\xb0\xb8?'
p694
tp695
Rp696
sI61961025059
g3
(g47
S'\x03\x9eh3hk\xb8?'
p697
tp698
Rp699
sI61960946218
g3
(g47
S'+\xa4GS\xb7(\xb2?'
p700
tp701
Rp702
sg12
g3
(g47
S'\x00\x00\x00\x00\x00\x00\x00\x00'
p703
tp704
Rp705
sI61961025073
g3
(g47
S'\xda#\x87[\x82`\xad?'
p706
tp707
Rp708
sI61964961871
g3
(g47
S'\x00\x00\x00\x00\x00\x00\x00\x00'
p709
tp710
Rp711
sg15
g3
(g47
S'\xf2\xc36\x96\x1c2\x9e?'
p712
tp713
Rp714
sI61965020015
g3
(g47
S'\x00\x00\x00\x00\x00\x00\x00\x00'
p715
tp716
Rp717
sg18
g3
(g47
S'\x00\x00\x00\x00\x00\x00\x00\x00'
p718
tp719
Rp720
sI61964943979
g3
(g47
S'\x00\x00\x00\x00\x00\x00\x00\x00'
p721
tp722
Rp723
sI61964943982
g3
(g47
S'\x00\x00\x00\x00\x00\x00\x00\x00'
p724
tp725
Rp726
sI61964943984
g3
(g47
S'\x00\x00\x00\x00\x00\x00\x00\x00'
p727
tp728
Rp729
sI61964943986
g3
(g47
S'\x00\x00\x00\x00\x00\x00\x00\x00'
p730
tp731
Rp732
sI61964943996
g3
(g47
S'\x00\x00\x00\x00\x00\x00\x00\x00'
p733
tp734
Rp735
sI61964961925
g3
(g47
S'\x00\x00\x00\x00\x00\x00\x00\x00'
p736
tp737
Rp738
sI413791240838
g3
(g47
S'\xa4\xa0\xd7\x95\xf6\xce\xb0?'
p739
tp740
Rp741
sI61964961927
g3
(g47
S'\x00\x00\x00\x00\x00\x00\x00\x00'
p742
tp743
Rp744
sI61964972168
g3
(g47
S'\x00\x00\x00\x00\x00\x00\x00\x00'
p745
tp746
Rp747
sI61964944011
g3
(g47
S'\x00\x00\x00\x00\x00\x00\x00\x00'
p748
tp749
Rp750
sI61964944018
g3
(g47
S'\x00\x00\x00\x00\x00\x00\x00\x00'
p751
tp752
Rp753
sI61961024963
g3
(g47
S'\xb3;\xfc 5\x08\xb6?'
p754
tp755
Rp756
sI61964944027
g3
(g47
S'\x00\x00\x00\x00\x00\x00\x00\x00'
p757
tp758
Rp759
sI61964944035
g3
(g47
S'\x00\x00\x00\x00\x00\x00\x00\x00'
p760
tp761
Rp762
sI61964944038
g3
(g47
S'\x00\x00\x00\x00\x00\x00\x00\x00'
p763
tp764
Rp765
sI61960946349
g3
(g47
S"\x15\x15\xb7'\x89\xba\xaa?"
p766
tp767
Rp768
sI61964944046
g3
(g47
S'\x00\x00\x00\x00\x00\x00\x00\x00'
p769
tp770
Rp771
sI61961025202
g3
(g47
S'\xa50\xd2\x1c ^\xb0?'
p772
tp773
Rp774
sI14720303796
g3
(g47
S'\x00\x00\x00\x00\x00\x00\x00\x00'
p775
tp776
Rp777
sI61964944053
g3
(g47
S'\x00\x00\x00\x00\x00\x00\x00\x00'
p778
tp779
Rp780
sI61964944054
g3
(g47
S'\x00\x00\x00\x00\x00\x00\x00\x00'
p781
tp782
Rp783
sI61964944057
g3
(g47
S'\x00\x00\x00\x00\x00\x00\x00\x00'
p784
tp785
Rp786
sg21
g3
(g47
S'\x00\x00\x00\x00\x00\x00\x00\x00'
p787
tp788
Rp789
sI61961078559
g3
(g47
S'\x8c\xd2\xce) \xa9\xa7?'
p790
tp791
Rp792
sI61964944064
g3
(g47
S'\x00\x00\x00\x00\x00\x00\x00\x00'
p793
tp794
Rp795
sI61964944067
g3
(g47
S'\x00\x00\x00\x00\x00\x00\x00\x00'
p796
tp797
Rp798
sI61961024887
g3
(g47
S'\xc2\xc4\x9c\xb8\xd1\xb5\xb7?'
p799
tp800
Rp801
sI61961353423
g3
(g47
S'\x04\x8b;&Y\xb2\xab?'
p802
tp803
Rp804
sI61965359909
g3
(g47
S'\x00\x00\x00\x00\x00\x00\x00\x00'
p805
tp806
Rp807
sI413791240929
g3
(g47
S'?\xb1;\x01\xe1\x8a\x8a?'
p808
tp809
Rp810
sI61964944337
g3
(g47
S'\x00\x00\x00\x00\x00\x00\x00\x00'
p811
tp812
Rp813
sI61961078506
g3
(g47
S'\xe4\xdc\xc4\xc6\x8d\x14\xbc?'
p814
tp815
Rp816
sI61964944341
g3
(g47
S'\x00\x00\x00\x00\x00\x00\x00\x00'
p817
tp818
Rp819
sI61965359883
g3
(g47
S'\x00\x00\x00\x00\x00\x00\x00\x00'
p820
tp821
Rp822
sI61965359903
g3
(g47
S'\x00\x00\x00\x00\x00\x00\x00\x00'
p823
tp824
Rp825
sI61961263393
g3
(g47
S'\x00\x00\x00\x00\x00\x00\x00\x00'
p826
tp827
Rp828
sI61961078565
g3
(g47
S'z\xeb`\xa8\xe6\x95\xb3?'
p829
tp830
Rp831
sI61961078566
g3
(g47
S',8\x81I\xbb"\xa8?'
p832
tp833
Rp834
sI61961078573
g3
(g47
S'\x83\x0fZ\xe8\xebb\xb7?'
p835
tp836
Rp837
sI61965359920
g3
(g47
S'\x00\x00\x00\x00\x00\x00\x00\x00'
p838
tp839
Rp840
sI61965019959
g3
(g47
S'\x00\x00\x00\x00\x00\x00\x00\x00'
p841
tp842
Rp843
sI61961024824
g3
(g47
S'\xfa\x08r=/>\xb8?'
p844
tp845
Rp846
sI61965019962
g3
(g47
S'\x00\x00\x00\x00\x00\x00\x00\x00'
p847
tp848
Rp849
sI61965359937
g3
(g47
S'\x00\x00\x00\x00\x00\x00\x00\x00'
p850
tp851
Rp852
sI61961078595
g3
(g47
S'\x05r\x7f\x15\xf9n\xa8?'
p853
tp854
Rp855
sI61965359944
g3
(g47
S'\x00\x00\x00\x00\x00\x00\x00\x00'
p856
tp857
Rp858
sI61965359948
g3
(g47
S'\x00\x00\x00\x00\x00\x00\x00\x00'
p859
tp860
Rp861
sI61965019982
g3
(g47
S'\x00\x00\x00\x00\x00\x00\x00\x00'
p862
tp863
Rp864
sI61965019983
g3
(g47
S'\x00\x00\x00\x00\x00\x00\x00\x00'
p865
tp866
Rp867
sg24
g3
(g47
S'\xf0/\x82u\x17\xe4\xb4?'
p868
tp869
Rp870
sI61965019987
g3
(g47
S'\x00\x00\x00\x00\x00\x00\x00\x00'
p871
tp872
Rp873
sI61961024853
g3
(g47
S'{\x94\xa9\xe0p\xb2\xb3?'
p874
tp875
Rp876
sI61965019992
g3
(g47
S'\x00\x00\x00\x00\x00\x00\x00\x00'
p877
tp878
Rp879
sI61965019994
g3
(g47
S'\x00\x00\x00\x00\x00\x00\x00\x00'
p880
tp881
Rp882
sI61961078619
g3
(g47
S'\x00\x00\x00\x00\x00\x00\x00\x00'
p883
tp884
Rp885
sI61965019996
g3
(g47
S'\x00\x00\x00\x00\x00\x00\x00\x00'
p886
tp887
Rp888
sg27
g3
(g47
S'\x00\x00\x00\x00\x00\x00\x00\x00'
p889
tp890
Rp891
sI61961024868
g3
(g47
S'\x00\x14\x1e\x8d\xb5:\xb6?'
p892
tp893
Rp894
sI61965020009
g3
(g47
S'\x00\x00\x00\x00\x00\x00\x00\x00'
p895
tp896
Rp897
sI61965359983
g3
(g47
S'\x00\x00\x00\x00\x00\x00\x00\x00'
p898
tp899
Rp900
sI61961024881
g3
(g47
S'\x17\xefq\xa4\xe2\xd8\xa7?'
p901
tp902
Rp903
sI61965020019
g3
(g47
S'\x00\x00\x00\x00\x00\x00\x00\x00'
p904
tp905
Rp906
sg30
g3
(g47
S'\xf6\xab3\x8e9\xe8\xb0?'
p907
tp908
Rp909
sI61965020021
g3
(g47
S'\x00\x00\x00\x00\x00\x00\x00\x00'
p910
tp911
Rp912
sg33
g3
(g47
S'\x00\x00\x00\x00\x00\x00\x00\x00'
p913
tp914
Rp915
sI61965359991
g3
(g47
S'{\x18\xed{\xf0\x85\xa6?'
p916
tp917
Rp918
sg36
g3
(g47
S'\xb0\xba\xd3\x81\x9c\x85\x98?'
p919
tp920
Rp921
sI61961024891
g3
(g47
S'\xf1\xe4\xd8\x03k\xbe\xb6?'
p922
tp923
Rp924
sI61965020029
g3
(g47
S'\x00\x00\x00\x00\x00\x00\x00\x00'
p925
tp926
Rp927
sI61961024911
g3
(g47
S'\x88\x97\xe1\xfe?\xdc\xae?'
p928
tp929
Rp930
sI61961024912
g3
(g47
S'Z\xb7#\xf8\xcd`\xb2?'
p931
tp932
Rp933
sI61961024927
g3
(g47
S'f\xa2\xd2-\x9ci\xb4?'
p934
tp935
Rp936
sI61961024929
g3
(g47
S':\x1c\xfd`\xe3\xfe\xbe?'
p937
tp938
Rp939
sI61961024937
g3
(g47
S'\x8c\x8b\xc1\x97\x9f\x87\xb8?'
p940
tp941
Rp942
sI61961024938
g3
(g47
S'\x04\x1b\x0enj@\xaf?'
p943
tp944
Rp945
sI61961024943
g3
(g47
S'\x91M_H\xf0T\xb6?'
p946
tp947
Rp948
sI61965360050
g3
(g47
S'\x00\x00\x00\x00\x00\x00\x00\x00'
p949
tp950
Rp951
sI61961024950
g3
(g47
S'\x00\x00\x00\x00\x00\x00\x00\x00'
p952
tp953
Rp954
sI61961024951
g3
(g47
S'\xd8\x9e\xcbe@\xe8\xb2?'
p955
tp956
Rp957
sI61964944313
g3
(g47
S'\x00\x00\x00\x00\x00\x00\x00\x00'
p958
tp959
Rp960
sI61964979130
g3
(g47
S'\x00\x00\x00\x00\x00\x00\x00\x00'
p961
tp962
Rp963
sI61961024956
g3
(g47
S'\x0c\xfdJnD\xf5\xb0?'
p964
tp965
Rp966
sI61964979139
g3
(g47
S'\x00\x00\x00\x00\x00\x00\x00\x00'
p967
tp968
Rp969
sI61961024968
g3
(g47
S'o\xe4\x9e\xe3\xed,\xb2?'
p970
tp971
Rp972
sI61964979150
g3
(g47
S'\x00\x00\x00\x00\x00\x00\x00\x00'
p973
tp974
Rp975
sI61964979153
g3
(g47
S'\x00\x00\x00\x00\x00\x00\x00\x00'
p976
tp977
Rp978
sI61964979154
g3
(g47
S'\x00\x00\x00\x00\x00\x00\x00\x00'
p979
tp980
Rp981
sg39
g3
(g47
S'\xe3\xa6\x0eF\xa6\x1d\xa7?'
p982
tp983
Rp984
sI61964979158
g3
(g47
S'\x00\x00\x00\x00\x00\x00\x00\x00'
p985
tp986
Rp987
sI61960619991
g3
(g47
S'\xc7\x1d\xab\xd4\xf9\xef\xb3?'
p988
tp989
Rp990
sI61964979163
g3
(g47
S'\x00\x00\x00\x00\x00\x00\x00\x00'
p991
tp992
Rp993
sI61964944350
g3
(g47
S'\x00\x00\x00\x00\x00\x00\x00\x00'
p994
tp995
Rp996
sg42
g3
(g47
S'\x00\x00\x00\x00\x00\x00\x00\x00'
p997
tp998
Rp999
sI413787380563
g3
(g47
S'\x00\x00\x00\x00\x00\x00\x00\x00'
p1000
tp1001
Rp1002
ssS'avg_cl'
p1003
(dp1004
I61961025033
F0.04860790919070671
sI61961025054
F0.047237558181486956
sI61960946207
F0.05788028293348946
sI61961025059
F0.05900882682753578
sI61960946218
F0.04051116574067093
sg12
F0.0
sI61961025073
F0.02759794141002412
sI61964961871
F0.0
sg15
F0.0050029402036091
sI61965020015
F0.0
sg18
F0.0
sI61964943979
F0.0
sI61964943982
F0.0
sI61964943984
F0.0
sI61964943986
F0.0
sI61964943996
F0.0
sI61964961925
F0.0
sI413791240838
F0.0389468292243276
sI61964961927
F0.0
sI61964972168
F0.0
sI61964944011
F0.0
sI61964944018
F0.0
sI61961024963
F0.052970236794106874
sI61964944027
F0.0
sI61964944035
F0.0
sI61964944038
F0.0
sI61960946349
F0.029217606980929824
sI61964944046
F0.0
sI61961025202
F0.029614578938184876
sI14720303796
F0.0
sI61964944053
F0.0
sI61964944054
F0.0
sI61964944057
F0.0
sg21
F0.0
sI61961078559
F0.016327299458904168
sI61964944064
F0.0
sI61964944067
F0.0
sI61961024887
F0.054391227185633675
sI61961353423
F0.022885583940163035
sI61965359909
F0.0
sI413791240929
F0.00196256038647343
sI61964944337
F0.0
sI61961078506
F0.06864302442946126
sI61964944341
F0.0
sI61965359883
F0.0
sI61965359903
F0.0
sI61961263393
F0.0
sI61961078565
F0.04390471873306789
sI61961078566
F0.02083090579302148
sI61961078573
F0.049742432837783124
sI61965359920
F0.0
sI61965019959
F0.0
sI61961024824
F0.05415017471017403
sI61965019962
F0.0
sI61965359937
F0.0
sI61961078595
F0.022644003459767487
sI61965359944
F0.0
sI61965359948
F0.0
sI61965019982
F0.0
sI61965019983
F0.0
sg24
F0.04122216663570279
sI61965019987
F0.0
sI61961024853
F0.04316062201718561
sI61965019992
F0.0
sI61965019994
F0.0
sI61961078619
F0.0
sI61965019996
F0.0
sg27
F0.0
sI61961024868
F0.049967421564166024
sI61965020009
F0.0
sI61965359983
F0.0
sI61961024881
F0.015652540352545073
sI61965020019
F0.0
sg30
F0.03491174354439864
sI61965020021
F0.0
sg33
F0.0
sI61965359991
F0.01452932153672209
sg36
F0.00331232312837664
sI61961024891
F0.05492056060137229
sI61965020029
F0.0
sI61961024911
F0.03238640230839521
sI61961024912
F0.03781662692554774
sI61961024927
F0.04839091047359895
sI61961024929
F0.07467898103064706
sI61961024937
F0.051939831617590734
sI61961024938
F0.0358699969402176
sI61961024943
F0.049519127865907814
sI61965360050
F0.0
sI61961024950
F0.0
sI61961024951
F0.039294925893346065
sI61964944313
F0.0
sI61964979130
F0.0
sI61961024956
F0.038293341756192
sI61964979139
F0.0
sI61961024968
F0.04182727069788984
sI61964979150
F0.0
sI61964979153
F0.0
sI61964979154
F0.0
sg39
F0.014556230591978764
sI61964979158
F0.0
sI61960619991
F0.048111193317613876
sI61964979163
F0.0
sI61964944350
F0.0
sg42
F0.0
sI413787380563
F0.0
ssS'agg_bt'
p1005
(dp1006
I61961025033
F0.00324998043459214
sI61961025054
F0.002534165035359088
sI61960946207
F0.001194466940826164
sI61961025059
F0.0015638003292036153
sI61960946218
F0.0012403223049401212
sg12
F0.0
sI61961025073
F0.0011551106211300385
sI61964961871
F0.0
sg15
F0.0
sI61965020015
F0.0
sg18
F0.0
sI61964943979
F0.0
sI61964943982
F0.0
sI61964943984
F0.0
sI61964943986
F0.0
sI61964943996
F0.0
sI61964961925
F0.0
sI413791240838
F0.0010754464346501966
sI61964961927
F0.0
sI61964972168
F0.0
sI61964944011
F0.0
sI61964944018
F0.0
sI61961024963
F0.0017361038575564344
sI61964944027
F0.0
sI61964944035
F0.0
sI61964944038
F0.0
sI61960946349
F0.0002625745344191946
sI61964944046
F0.0
sI61961025202
F0.002215564380932406
sI14720303796
F0.0
sI61964944053
F0.0
sI61964944054
F0.0
sI61964944057
F0.0
sg21
F0.0
sI61961078559
F0.0031510311943471012
sI61964944064
F0.0
sI61964944067
F0.0
sI61961024887
F0.002123826302317714
sI61961353423
F0.0006783804113901201
sI61965359909
F0.0
sI413791240929
F0.0
sI61964944337
F0.0
sI61961078506
F0.003675421926176295
sI61964944341
F0.0
sI61965359883
F0.0
sI61965359903
F0.0
sI61961263393
F0.0
sI61961078565
F0.0029709655309966983
sI61961078566
F0.0001304049240942445
sI61961078573
F0.006571237058268499
sI61965359920
F0.0
sI61965019959
F0.0
sI61961024824
F0.004376941204255061
sI61965019962
F0.0
sI61965359937
F0.0
sI61961078595
F0.00020282104626764822
sI61965359944
F0.0
sI61965359948
F0.0
sI61965019982
F0.0
sI61965019983
F0.0
sg24
F0.001297350788032831
sI61965019987
F0.0
sI61961024853
F0.0009238847410990802
sI61965019992
F0.0
sI61965019994
F0.0
sI61961078619
F0.0
sI61965019996
F0.0
sg27
F0.0
sI61961024868
F0.004421983980207728
sI61965020009
F0.0
sI61965359983
F0.0
sI61961024881
F0.00428549543560746
sI61965020019
F0.0
sg30
F0.001762188853962639
sI61965020021
F0.0
sg33
F0.0
sI61965359991
F0.0011644478457398545
sg36
F4.667662434652726e-05
sI61961024891
F0.0034021352682667098
sI61965020029
F0.0
sI61961024911
F0.003169999364017695
sI61961024912
F0.0016538842971815337
sI61961024927
F0.0018855120225350528
sI61961024929
F0.030513195723810702
sI61961024937
F0.009770682907742847
sI61961024938
F0.0003717029331098317
sI61961024943
F0.0014241167319099346
sI61965360050
F0.0
sI61961024950
F0.0
sI61961024951
F0.004423392727424719
sI61964944313
F0.0
sI61964979130
F0.0
sI61961024956
F0.0003423138429846838
sI61964979139
F0.0
sI61961024968
F0.0011159049853971437
sI61964979150
F0.0
sI61964979153
F0.0
sI61964979154
F0.0
sg39
F0.0004227454563526259
sI61964979158
F0.0
sI61960619991
F0.0008246649119158062
sI61964979163
F0.0
sI61964944350
F0.0
sg42
F0.0
sI413787380563
F0.0
ssS'agg_deg'
p1007
(dp1008
I61961025033
F0.1826923076923077
sI61961025054
F0.13461538461538464
sI61960946207
F0.15384615384615385
sI61961025059
F0.17307692307692307
sI61960946218
F0.16346153846153846
sg12
F0.0
sI61961025073
F0.08653846153846154
sI61964961871
F0.0
sg15
F0.019230769230769232
sI61965020015
F0.0
sg18
F0.0
sI61964943979
F0.0
sI61964943982
F0.0
sI61964943984
F0.0
sI61964943986
F0.0
sI61964943996
F0.0
sI61964961925
F0.0
sI413791240838
F0.15384615384615385
sI61964961927
F0.0
sI61964972168
F0.0
sI61964944011
F0.0
sI61964944018
F0.0
sI61961024963
F0.17307692307692307
sI61964944027
F0.0
sI61964944035
F0.0
sI61964944038
F0.0
sI61960946349
F0.057692307692307696
sI61964944046
F0.0
sI61961025202
F0.10576923076923078
sI14720303796
F0.0
sI61964944053
F0.0
sI61964944054
F0.0
sI61964944057
F0.0
sg21
F0.0
sI61961078559
F0.04807692307692308
sI61964944064
F0.0
sI61964944067
F0.0
sI61961024887
F0.15384615384615385
sI61961353423
F0.10576923076923078
sI61965359909
F0.0
sI413791240929
F0.009615384615384616
sI61964944337
F0.0
sI61961078506
F0.21153846153846156
sI61964944341
F0.0
sI61965359883
F0.0
sI61965359903
F0.0
sI61961263393
F0.0
sI61961078565
F0.21153846153846156
sI61961078566
F0.06730769230769232
sI61961078573
F0.25961538461538464
sI61965359920
F0.0
sI61965019959
F0.0
sI61961024824
F0.22115384615384617
sI61965019962
F0.0
sI61965359937
F0.0
sI61961078595
F0.038461538461538464
sI61965359944
F0.0
sI61965359948
F0.0
sI61965019982
F0.0
sI61965019983
F0.0
sg24
F0.13461538461538464
sI61965019987
F0.0
sI61961024853
F0.13461538461538464
sI61965019992
F0.0
sI61965019994
F0.0
sI61961078619
F0.0
sI61965019996
F0.0
sg27
F0.0
sI61961024868
F0.21153846153846156
sI61965020009
F0.0
sI61965359983
F0.0
sI61961024881
F0.057692307692307696
sI61965020019
F0.0
sg30
F0.16346153846153846
sI61965020021
F0.0
sg33
F0.0
sI61965359991
F0.07692307692307693
sg36
F0.019230769230769232
sI61961024891
F0.13461538461538464
sI61965020029
F0.0
sI61961024911
F0.1826923076923077
sI61961024912
F0.10576923076923078
sI61961024927
F0.19230769230769232
sI61961024929
F0.33653846153846156
sI61961024937
F0.2403846153846154
sI61961024938
F0.125
sI61961024943
F0.15384615384615385
sI61965360050
F0.0
sI61961024950
F0.0
sI61961024951
F0.125
sI61964944313
F0.0
sI61964979130
F0.0
sI61961024956
F0.10576923076923078
sI61964979139
F0.0
sI61961024968
F0.09615384615384616
sI61964979150
F0.0
sI61964979153
F0.0
sI61964979154
F0.0
sg39
F0.07692307692307693
sI61964979158
F0.0
sI61960619991
F0.11538461538461539
sI61964979163
F0.0
sI61964944350
F0.0
sg42
F0.0
sI413787380563
F0.0
ss.