(dp0
S'agg_cl'
p1
(dp2
I61961025033
F0.6203473945409429
sI61961025054
F0.5623031938821412
sI61960946207
F0.5401901469317201
sI61961025059
F0.6453278265358803
sI61960946218
F0.6009615384615384
scnumpy.core.multiarray
scalar
p3
(cnumpy
dtype
p4
(S'i8'
p5
I0
I1
tp6
Rp7
(I3
S'<'
p8
NNNI-1
I-1
I0
tp9
bS'\xb2\x02fm\x0e\x00\x00\x00'
p10
tp11
Rp12
F0.5972288580984233
sI61961025073
F0.5401901469317201
sI61964961871
F0.5283178360101438
sg3
(g7
S'\xba%\x8cW`\x00\x00\x00'
p13
tp14
Rp15
F0.4905808477237049
sI61965020015
F0.5401901469317201
sg3
(g7
S'\xd5\x8bfm\x0e\x00\x00\x00'
p16
tp17
Rp18
F0.4831851565519907
sI61964943979
F0.4880905896134322
sI61964943982
F0.4856254856254857
sI61964943984
F0.589900896649363
sI61964943986
F0.5114566284779051
sI61964943996
F0.5827505827505828
sI61964961925
F0.4880905896134322
sI413791240838
F0.5792400370713624
sI61964961927
F0.4831851565519907
sI61964972168
F0.5972288580984233
sI61964944011
F0.4880905896134322
sI61964944018
F0.5526083112290009
sI61961024963
F0.5526083112290009
sI61964944027
F0.5526083112290009
sI61964944035
F0.5689576695493855
sI61964944038
F0.6047411707789067
sI61960946349
F0.5401901469317201
sI61964944046
F0.5863039399624765
sI61961025202
F0.5060728744939271
sI14720303796
F0.0
sI61964944053
F0.4880905896134322
sI61964944054
F0.5623031938821412
sI61964944057
F0.4831851565519907
sg3
(g7
S'\xba\x02fm\x0e\x00\x00\x00'
p19
tp20
Rp21
F0.5114566284779051
sI61961078559
F0.4807692307692308
sI61964944064
F0.5558025789239662
sI61964944067
F0.4831851565519907
sI61961024887
F0.5401901469317201
sI61961353423
F0.8289124668435013
sI61965359909
F0.5558025789239662
sI413791240929
F0.589900896649363
sI61964944337
F0.5558025789239662
sI61961078506
F0.6819421713038735
sI61964944341
F0.4905808477237049
sI61965359883
F0.4880905896134322
sI61965359903
F0.5935422602089269
sI61961263393
F0.0
sI61961078565
F0.6585879873551106
sI61961078566
F0.5034232782923882
sI61961078573
F0.7396449704142013
sI61965359920
F0.5623031938821412
sI61965019959
F0.4807692307692308
sI61961024824
F0.5623031938821412
sI61965019962
F0.49309664694280075
sI61965359937
F0.4856254856254857
sI61961078595
F0.5169561621174524
sI61965359944
F0.5371723248818221
sI61965359948
F0.5494505494505494
sI61965019982
F0.49820645675567954
sI61965019983
F0.5526083112290009
sg3
(g7
S'R\x07+m\x0e\x00\x00\x00'
p22
tp23
Rp24
F0.5401901469317201
sI61965019987
F0.49820645675567954
sI61961024853
F0.5623031938821412
sI61965019992
F0.5494505494505494
sI61965019994
F0.4807692307692308
sI61961078619
F0.0
sI61965019996
F0.5087505087505088
sg3
(g7
S'`[lm\x0e\x00\x00\x00'
p25
tp26
Rp27
F0.49563838223632034
sI61961024868
F0.5656108597285068
sI61965020009
F0.4856254856254857
sI61965359983
F0.5689576695493855
sI61961024881
F0.49820645675567954
sI61965020019
F0.5371723248818221
sg3
(g7
S't5*m\x0e\x00\x00\x00'
p28
tp29
Rp30
F0.8218277449046679
sI61965020021
F0.5463286713286714
sg3
(g7
S'v5*m\x0e\x00\x00\x00'
p31
tp32
Rp33
F0.0
sI61965359991
F0.5558025789239662
sg3
(g7
S'x5*m\x0e\x00\x00\x00'
p34
tp35
Rp36
F0.34097108565193673
sI61961024891
F0.5494505494505494
sI61965020029
F0.49820645675567954
sI61961024911
F0.5494505494505494
sI61961024912
F0.5723443223443223
sI61961024927
F0.5463286713286714
sI61961024929
F0.8903133903133903
sI61961024937
F0.5723443223443223
sI61961024938
F0.5341880341880342
sI61961024943
F0.6203473945409429
sI61965360050
F0.531236719082023
sI61961024950
F0.46006624953993375
sI61961024951
F0.5432420686657975
sI61964944313
F0.5432420686657975
sI61964979130
F0.4856254856254857
sI61961024956
F0.5371723248818221
sI61964979139
F0.5371723248818221
sI61961024968
F0.5341880341880342
sI61964979150
F0.5526083112290009
sI61964979153
F0.5034232782923882
sI61964979154
F0.5558025789239662
sg3
(g7
S'N\x07+m\x0e\x00\x00\x00'
p37
tp38
Rp39
F0.5060728744939271
sI61964979158
F0.5656108597285068
sI61960619991
F0.5558025789239662
sI61964979163
F0.531236719082023
sI61964944350
F0.5371723248818221
sg3
(g7
S'\xf2\x03fm\x0e\x00\x00\x00'
p40
tp41
Rp42
F0.5114566284779051
sI413787380563
F0.5371723248818221
ssS't_deg'
p43
(dp44
I61961025033
g3
(g4
(S'f8'
p45
I0
I1
tp46
Rp47
(I3
S'<'
p48
NNNI-1
I-1
I0
tp49
bS'lC\xfdO\x83\xec~?'
p50
tp51
Rp52
sI61961025054
g3
(g47
S'\xbfN\xe2#\xf7Rl?'
p53
tp54
Rp55
sI61960946207
g3
(g47
S'\xbc\xbf\xebOe\tx?'
p56
tp57
Rp58
sI61961025059
g3
(g47
S'-J\x8d\x83\xd59\x80?'
p59
tp60
Rp61
sI61960946218
g3
(g47
S'\x14\x1a+\xd4\xeb\xf2h?'
p62
tp63
Rp64
sg12
g3
(g47
S'I\x96l\x7f\xc3];?'
p65
tp66
Rp67
sI61961025073
g3
(g47
S'\x1aZVin\x9f6?'
p68
tp69
Rp70
sI61964961871
g3
(g47
S'\xf9J\xeb\x87\xd00\x1d?'
p71
tp72
Rp73
sg15
g3
(g47
S'\xba\xff\x87s\xe4\xcf\x18?'
p74
tp75
Rp76
sI61965020015
g3
(g47
S'\x98\xf0\x1c\x92Fa/?'
p77
tp78
Rp79
sg18
g3
(g47
S'\xf9J\xeb\x87\xd00\xfd>'
p80
tp81
Rp82
sI61964943979
g3
(g47
S'\xfa;\xbcl@Z\x07?'
p83
tp84
Rp85
sI61964943982
g3
(g47
S'{\xb4$_\xf8n\x04?'
p86
tp87
Rp88
sI61964943984
g3
(g47
S'\x8a\xd2\xa0x\x1f\xe89?'
p89
tp90
Rp91
sI61964943986
g3
(g47
S"\x1cK'N\xde\xc8 ?"
p92
tp93
Rp94
sI61964943996
g3
(g47
S'[\x96\x8ab\xca)5?'
p95
tp96
Rp97
sI61964961925
g3
(g47
S'\xfa;\xbcl@Z\x07?'
p98
tp99
Rp100
sI413791240838
g3
(g47
S'\x1c:\x88\xd7.<v?'
p101
tp102
Rp103
sI61964961927
g3
(g47
S'\xf9J\xeb\x87\xd00\xfd>'
p104
tp105
Rp106
sI61964972168
g3
(g47
S'\xb4\xe1\x9a\xcb\xc0<@?'
p107
tp108
Rp109
sI61964944011
g3
(g47
S'\xfa;\xbcl@Z\x07?'
p110
tp111
Rp112
sI61964944018
g3
(g47
S'+i\xa3g\x05B6?'
p113
tp114
Rp115
sI61961024963
g3
(g47
S'\x85\x94\xe5>\xbc\xf1p?'
p116
tp117
Rp118
sI61964944027
g3
(g47
S'\xd9,Q\x8b\xa2\xeb-?'
p119
tp120
Rp121
sI61964944035
g3
(g47
S'\xdc\x0e\xf3T\x82>2?'
p122
tp123
Rp124
sI61964944038
g3
(g47
S'\xe9;\x9e\x899\x8e=?'
p125
tp126
Rp127
sI61960946349
g3
(g47
S'\xea,on\xa9\xb7W?'
p128
tp129
Rp130
sI61964944046
g3
(g47
S'\xc9\x1d\x04\x8d\x0bI>?'
p131
tp132
Rp133
sI61961025202
g3
(g47
S'Cx\x7f\xd7\x9f\xcab?'
p134
tp135
Rp136
sI14720303796
g3
(g47
S'\x00\x00\x00\x00\x00\x00\x00\x00'
p137
tp138
Rp139
sI61964944053
g3
(g47
S'\xfc,\x8dQ\xb0\x83\x01?'
p140
tp141
Rp142
sI61964944054
g3
(g47
S'\x1aZVin\x9f6?'
p143
tp144
Rp145
sI61964944057
g3
(g47
S'\xf9J\xeb\x87\xd00\xfd>'
p146
tp147
Rp148
sg21
g3
(g47
S';x\xf0e\x9c\xe4\x15?'
p149
tp150
Rp151
sI61961078559
g3
(g47
S'"i\x14\xf6\x01\\I?'
p152
tp153
Rp154
sI61964944064
g3
(g47
S'\x19i\x85\x84\xfeu,?'
p155
tp156
Rp157
sI61964944067
g3
(g47
S'\xfc,\x8dQ\xb0\x83\x01?'
p158
tp159
Rp160
sI61961024887
g3
(g47
S'\x87TI\x1b=+p?'
p161
tp162
Rp163
sI61961353423
g3
(g47
S'M6\x02\xca\x044z?'
p164
tp165
Rp166
sI61965359909
g3
(g47
S'\x0c<\xdaOG&1?'
p167
tp168
Rp169
sI413791240929
g3
(g47
S'_\x16R\x1b\xcc\x9cS?'
p170
tp171
Rp172
sI61964944337
g3
(g47
S'K\x87=d3\x875?'
p173
tp174
Rp175
sI61961078506
g3
(g47
S"'\xea\x93\\\x13*\x82?"
p176
tp177
Rp178
sI61964944341
g3
(g47
S'\xfa;\xbcl@Z\x17?'
p179
tp180
Rp181
sI61965359883
g3
(g47
S'{\xb4$_\xf8n\x04?'
p182
tp183
Rp184
sI61965359903
g3
(g47
S'Y\xa5\xb9}Z\x00;?'
p185
tp186
Rp187
sI61961263393
g3
(g47
S'\x00\x00\x00\x00\x00\x00\x00\x00'
p188
tp189
Rp190
sI61961078565
g3
(g47
S'[\x96\x8ab\xca)u?'
p191
tp192
Rp193
sI61961078566
g3
(g47
S')x\xd2\x82\x95\x18L?'
p194
tp195
Rp196
sI61961078573
g3
(g47
S'\xe7\x9dx\x9a\x17ns?'
p197
tp198
Rp199
sI61965359920
g3
(g47
S'\x9b\xd2\xbe[&\xb43?'
p200
tp201
Rp202
sI61965019959
g3
(g47
S'\xfa;\xbcl@Z\xf7>'
p203
tp204
Rp205
sI61961024824
g3
(g47
S'\xe1]M\x05\x95\xc1u?'
p206
tp207
Rp208
sI61965019962
g3
(g47
S'{\xb4$_\xf8n\x14?'
p209
tp210
Rp211
sI61965359937
g3
(g47
S'{\xb4$_\xf8n\x04?'
p212
tp213
Rp214
sI61961078595
g3
(g47
S'g%\x10\xa8_YV?'
p215
tp216
Rp217
sI61965359944
g3
(g47
S'<i\xc1J\x0c\x0e0?'
p218
tp219
Rp220
sI61965359948
g3
(g47
S'\xbb\xf0XXT\xf92?'
p221
tp222
Rp223
sI61965019982
g3
(g47
S'\xd9,Q\x8b\xa2\xeb-?'
p224
tp225
Rp226
sI61965019983
g3
(g47
S"\x1cK'N\xde\xc80?"
p227
tp228
Rp229
sg24
g3
(g47
S'\x8fC9\x16\x91\x84b?'
p230
tp231
Rp232
sI61965019987
g3
(g47
S'\xf9J\xeb\x87\xd00\r?'
p233
tp234
Rp235
sI61961024853
g3
(g47
S'\x80\x03\x7f\x0f\x0b\xf2g?'
p236
tp237
Rp238
sI61965019992
g3
(g47
S'\xdc\x0e\xf3T\x82>2?'
p239
tp240
Rp241
sI61965019994
g3
(g47
S'\xfa;\xbcl@Z\xf7>'
p242
tp243
Rp244
sI61961078619
g3
(g47
S'\x00\x00\x00\x00\x00\x00\x00\x00'
p245
tp246
Rp247
sI61965019996
g3
(g47
S'\xfa;\xbcl@Z\x17?'
p248
tp249
Rp250
sg27
g3
(g47
S'\xfa;\xbcl@Z\x07?'
p251
tp252
Rp253
sI61961024868
g3
(g47
S'\xf6\xcc\x93*\xeess?'
p254
tp255
Rp256
sI61965020009
g3
(g47
S'\xf9J\xeb\x87\xd00\xfd>'
p257
tp258
Rp259
sI61965359983
g3
(g47
S'\x9b\xd2\xbe[&\xb43?'
p260
tp261
Rp262
sI61961024881
g3
(g47
S'Cx\x7f\xd7\x9f\xcaB?'
p263
tp264
Rp265
sI61965020019
g3
(g47
S"\x1cK'N\xde\xc8 ?"
p266
tp267
Rp268
sg30
g3
(g47
S'`\xd4E\x9c- ~?'
p269
tp270
Rp271
sI61965020021
g3
(g47
S'\xab\xe1\x0bZ\xbdV3?'
p272
tp273
Rp274
sg33
g3
(g47
S'\x00\x00\x00\x00\x00\x00\x00\x00'
p275
tp276
Rp277
sI61965359991
g3
(g47
S'\xb4\xe1\x9a\xcb\xc0<P?'
p278
tp279
Rp280
sg36
g3
(g47
S'\xfa;\xbcl@Z\x17?'
p281
tp282
Rp283
sI61961024891
g3
(g47
S';x\xf0e\x9c\xe4u?'
p284
tp285
Rp286
sI61965020029
g3
(g47
S'<i\xc1J\x0c\x0e\x10?'
p287
tp288
Rp289
sI61961024911
g3
(g47
S'}RJN\x1a\x8f^?'
p290
tp291
Rp292
sI61961024912
g3
(g47
S'\xb90\xf5{\xd3\xbfc?'
p293
tp294
Rp295
sI61961024927
g3
(g47
S'\x1e\x0b\x8b*_\x02`?'
p296
tp297
Rp298
sI61961024929
g3
(g47
S'H\x80\xbatqV\x91?'
p299
tp300
Rp301
sI61961024937
g3
(g47
S'p\x05\xd1\x87#\xdcr?'
p302
tp303
Rp304
sI61961024938
g3
(g47
S'\x94\xc3\x00\xcf\x92\xf7`?'
p305
tp306
Rp307
sI61961024943
g3
(g47
S'\x19\xab\x91\x03\x9d\xf2q?'
p308
tp309
Rp310
sI61965360050
g3
(g47
S"\x1cK'N\xde\xc8 ?"
p311
tp312
Rp313
sI61961024950
g3
(g47
S'\xdc\x0e\xf3T\x82>"?'
p314
tp315
Rp316
sI61961024951
g3
(g47
S'\xb3\xbf\\\xdea#k?'
p317
tp318
Rp319
sI61964944313
g3
(g47
S',ZtLuk0?'
p320
tp321
Rp322
sI61964979130
g3
(g47
S'\xfa;\xbcl@Z\x07?'
p323
tp324
Rp325
sI61961024956
g3
(g47
S'\xad\x7f1I\xdfv]?'
p326
tp327
Rp328
sI61964979139
g3
(g47
S'\xbb\xf0XXT\xf92?'
p329
tp330
Rp331
sI61961024968
g3
(g47
S':\xa9]n\x8b\xd4`?'
p332
tp333
Rp334
sI61964979150
g3
(g47
S'\x0c<\xdaOG&1?'
p335
tp336
Rp337
sI61964979153
g3
(g47
S'\xfa;\xbcl@Z\x17?'
p338
tp339
Rp340
sI61964979154
g3
(g47
S';x\xf0e\x9c\xe45?'
p341
tp342
Rp343
sg39
g3
(g47
S'\x19i\x85\x84\xfeuL?'
p344
tp345
Rp346
sI61964979158
g3
(g47
S'\xdc\x0e\xf3T\x82>2?'
p347
tp348
Rp349
sI61960619991
g3
(g47
S'\xfc,\x8dQ\xb0\x83q?'
p350
tp351
Rp352
sI61964979163
g3
(g47
S'\xdc\x0e\xf3T\x82>"?'
p353
tp354
Rp355
sI61964944350
g3
(g47
S'\xb9\x0e\xb7\x8et\xa6.?'
p356
tp357
Rp358
sg42
g3
(g47
S'\xba\xff\x87s\xe4\xcf\x18?'
p359
tp360
Rp361
sI413787380563
g3
(g47
S'\x10i\xf6\x12\xfb\x8fO?'
p362
tp363
Rp364
ssS'avg_bt'
p365
(dp366
I61961025033
F0.0005646226153616964
sI61961025054
F0.0003309212331094431
sI61960946207
F0.0006957630698237461
sI61961025059
F0.0005769722917439067
sI61960946218
F0.0001755350232299139
sg12
F1.7079098551040582e-05
sI61961025073
F8.623598692240088e-06
sI61964961871
F2.482652991515175e-06
sg15
F9.007815638030622e-06
sI61965020015
F1.2403014372082957e-05
sg18
F5.801919721899935e-07
sI61964943979
F3.1351988559335047e-07
sI61964943982
F2.1609067414864066e-07
sI61964943984
F2.1293775088147528e-05
sI61964943986
F2.9017674073712346e-06
sI61964943996
F2.1668413542049247e-05
sI61964961925
F9.537248375183677e-07
sI413791240838
F0.0005933831314528719
sI61964961927
F1.8850001963172261e-07
sI61964972168
F4.179928324606409e-05
sI61964944011
F7.562481764660144e-07
sI61964944018
F4.129813665402065e-05
sI61961024963
F0.0005340047976924084
sI61964944027
F4.830325420247698e-06
sI61964944035
F7.187667655603332e-06
sI61964944038
F4.704484481202823e-05
sI61960946349
F7.301466175526476e-05
sI61964944046
F2.6446478889085702e-05
sI61961025202
F6.769364016976185e-05
sI14720303796
F0.0
sI61964944053
F4.324412215080696e-08
sI61964944054
F1.0580164137258395e-05
sI61964944057
F2.3654904424373035e-07
sg21
F1.6467417156209536e-06
sI61961078559
F2.6921868490107937e-05
sI61964944064
F6.0019494669682516e-06
sI61964944067
F9.910111326226595e-07
sI61961024887
F0.0002147807116033672
sI61961353423
F0.0005248487756237942
sI61965359909
F1.3597897529926684e-05
sI413791240929
F3.566317573354327e-05
sI61964944337
F1.808811054369039e-05
sI61961078506
F0.0006808721099206336
sI61964944341
F3.1526932789898997e-06
sI61965359883
F4.7568534365887653e-07
sI61965359903
F3.485896988939235e-05
sI61961263393
F0.0
sI61961078565
F0.00027232473127214565
sI61961078566
F4.8513532180590064e-05
sI61961078573
F0.00048301719067293277
sI61965359920
F1.5266760808295432e-05
sI61965019959
F4.324412215080696e-08
sI61961024824
F0.0006376489693604108
sI61965019962
F9.328374921102645e-07
sI61965359937
F2.955015013638475e-07
sI61961078595
F6.510209535687244e-05
sI61965359944
F2.7050709627545167e-06
sI61965359948
F6.08295045128687e-06
sI61965019982
F1.932504476644515e-05
sI61965019983
F8.842652526415936e-06
sg24
F7.57799398384161e-05
sI61965019987
F3.5386556669276627e-07
sI61961024853
F0.00019751027130730382
sI61965019992
F1.5106804664420636e-05
sI61965019994
F9.369559799341508e-08
sI61961078619
F0.0
sI61965019996
F4.915415217808391e-06
sg27
F3.0919557556016214e-07
sI61961024868
F0.0004077517399964325
sI61965020009
F1.8932953732061e-07
sI61965359983
F2.2180474116521814e-05
sI61961024881
F1.4586769302702993e-05
sI61965020019
F7.806170474032046e-06
sg30
F0.0003378932412719627
sI61965020021
F5.105859718420275e-06
sg33
F0.0
sI61965359991
F2.7332617832767005e-05
sg36
F2.162206107540348e-07
sI61961024891
F0.0001303936925758423
sI61965020029
F2.3006368594797845e-06
sI61961024911
F0.00012372137829961237
sI61961024912
F0.00013233709901711818
sI61961024927
F0.00016531731668922655
sI61961024929
F0.0013534171810979884
sI61961024937
F0.00036650362417611575
sI61961024938
F0.00014982123865940085
sI61961024943
F0.00038819878068729327
sI61965360050
F1.3272982069323887e-05
sI61961024950
F1.9658057194387664e-05
sI61961024951
F0.00024348702819140927
sI61964944313
F5.70379327512016e-06
sI61964979130
F4.5119882150083415e-07
sI61961024956
F9.45797390471077e-05
sI61964979139
F9.658733225568858e-06
sI61961024968
F9.795240385507266e-05
sI61964979150
F1.0652707276383906e-05
sI61964979153
F9.497169369837989e-07
sI61964979154
F1.2313506430729872e-05
sg39
F2.0699291647987695e-05
sI61964979158
F1.0516689989534008e-05
sI61960619991
F0.0004674521682860302
sI61964979163
F1.3412544455546626e-06
sI61964944350
F2.3862144462257514e-06
sg42
F4.535484716054873e-06
sI413787380563
F2.3860330504941227e-05
ssS't_bt'
p367
(dp368
I61961025033
g3
(g47
S'\x00\x00\x00\x00\x00\x00\xf8\xff'
p369
tp370
Rp371
sI61961025054
g3
(g47
S'\x00\x00\x00\x00\x00\x00\xf8\xff'
p372
tp373
Rp374
sI61960946207
g3
(g47
S'\x00\x00\x00\x00\x00\x00\xf8\xff'
p375
tp376
Rp377
sI61961025059
g3
(g47
S'\x00\x00\x00\x00\x00\x00\xf8\xff'
p378
tp379
Rp380
sI61960946218
g3
(g47
S'\x00\x00\x00\x00\x00\x00\xf8\xff'
p381
tp382
Rp383
sg12
g3
(g47
S'\x00\x00\x00\x00\x00\x00\xf8\xff'
p384
tp385
Rp386
sI61961025073
g3
(g47
S'\x00\x00\x00\x00\x00\x00\xf8\xff'
p387
tp388
Rp389
sI61964961871
g3
(g47
S'\x00\x00\x00\x00\x00\x00\xf8\xff'
p390
tp391
Rp392
sg15
g3
(g47
S'\x00\x00\x00\x00\x00\x00\xf8\xff'
p393
tp394
Rp395
sI61965020015
g3
(g47
S'\x00\x00\x00\x00\x00\x00\xf8\xff'
p396
tp397
Rp398
sg18
g3
(g47
S'5\x13\x8e\x8c\xa3\xe7q?'
p399
tp400
Rp401
sI61964943979
g3
(g47
S'\x00\x00\x00\x00\x00\x00\xf8\xff'
p402
tp403
Rp404
sI61964943982
g3
(g47
S'\x00\x00\x00\x00\x00\x00\xf8\xff'
p405
tp406
Rp407
sI61964943984
g3
(g47
S'\x00\x00\x00\x00\x00\x00\xf8\xff'
p408
tp409
Rp410
sI61964943986
g3
(g47
S'\x00\x00\x00\x00\x00\x00\xf8\xff'
p411
tp412
Rp413
sI61964943996
g3
(g47
S'\x00\x00\x00\x00\x00\x00\xf8\xff'
p414
tp415
Rp416
sI61964961925
g3
(g47
S'E3\xb1\x80\x17\xb9\xb4?'
p417
tp418
Rp419
sI413791240838
g3
(g47
S'\x00\x00\x00\x00\x00\x00\xf8\xff'
p420
tp421
Rp422
sI61964961927
g3
(g47
S'\x00\x00\x00\x00\x00\x00\xf8\xff'
p423
tp424
Rp425
sI61964972168
g3
(g47
S'\x00\x00\x00\x00\x00\x00\xf8\xff'
p426
tp427
Rp428
sI61964944011
g3
(g47
S'8\xd73\xc6\xdbq\xbe?'
p429
tp430
Rp431
sI61964944018
g3
(g47
S'\x00\x00\x00\x00\x00\x00\xf8\xff'
p432
tp433
Rp434
sI61961024963
g3
(g47
S'\x00\x00\x00\x00\x00\x00\xf8\xff'
p435
tp436
Rp437
sI61964944027
g3
(g47
S'\x00\x00\x00\x00\x00\x00\xf8\xff'
p438
tp439
Rp440
sI61964944035
g3
(g47
S'\x00\x00\x00\x00\x00\x00\xf8\xff'
p441
tp442
Rp443
sI61964944038
g3
(g47
S'\x00\x00\x00\x00\x00\x00\xf8\xff'
p444
tp445
Rp446
sI61960946349
g3
(g47
S'\x00\x00\x00\x00\x00\x00\xf8\xff'
p447
tp448
Rp449
sI61964944046
g3
(g47
S'\x00\x00\x00\x00\x00\x00\xf8\xff'
p450
tp451
Rp452
sI61961025202
g3
(g47
S'\x00\x00\x00\x00\x00\x00\xf8\xff'
p453
tp454
Rp455
sI14720303796
g3
(g47
S'\x00\x00\x00\x00\x00\x00\x00\x00'
p456
tp457
Rp458
sI61964944053
g3
(g47
S'\xb7AuG\xcd|\xd8?'
p459
tp460
Rp461
sI61964944054
g3
(g47
S'\x00\x00\x00\x00\x00\x00\xf8\xff'
p462
tp463
Rp464
sI61964944057
g3
(g47
S'8P\xb7\xa7\x0e\xe3\xad?'
p465
tp466
Rp467
sg21
g3
(g47
S'\xf3\x96J\x95\xb0\xfc\xd1?'
p468
tp469
Rp470
sI61961078559
g3
(g47
S'\x00\x00\x00\x00\x00\x00\xf8\xff'
p471
tp472
Rp473
sI61964944064
g3
(g47
S'\x00\x00\x00\x00\x00\x00\xf8\xff'
p474
tp475
Rp476
sI61964944067
g3
(g47
S'?\x00eL\xc5t\x80?'
p477
tp478
Rp479
sI61961024887
g3
(g47
S'\x00\x00\x00\x00\x00\x00\xf8\xff'
p480
tp481
Rp482
sI61961353423
g3
(g47
S'\x00\x00\x00\x00\x00\x00\xf8\xff'
p483
tp484
Rp485
sI61965359909
g3
(g47
S'\xc7x*+\x7f\xbf\xbf?'
p486
tp487
Rp488
sI413791240929
g3
(g47
S'\x00\x00\x00\x00\x00\x00\xf8\xff'
p489
tp490
Rp491
sI61964944337
g3
(g47
S'\xf5\xb3\x0c\xec\xa2D\xdc?'
p492
tp493
Rp494
sI61961078506
g3
(g47
S'\x00\x00\x00\x00\x00\x00\xf8\xff'
p495
tp496
Rp497
sI61964944341
g3
(g47
S'\x00\x00\x00\x00\x00\x00\xf8\xff'
p498
tp499
Rp500
sI61965359883
g3
(g47
S'\x83\xc9L\x10\xd5U\xd3?'
p501
tp502
Rp503
sI61965359903
g3
(g47
S'\x00\x00\x00\x00\x00\x00\xf8\xff'
p504
tp505
Rp506
sI61961263393
g3
(g47
S'\x00\x00\x00\x00\x00\x00\x00\x00'
p507
tp508
Rp509
sI61961078565
g3
(g47
S'\x00\x00\x00\x00\x00\x00\xf8\xff'
p510
tp511
Rp512
sI61961078566
g3
(g47
S'\x00\x00\x00\x00\x00\x00\xf8\xff'
p513
tp514
Rp515
sI61961078573
g3
(g47
S'\x00\x00\x00\x00\x00\x00\xf8\xff'
p516
tp517
Rp518
sI61965359920
g3
(g47
S'\x00\x00\x00\x00\x00\x00\xf8\xff'
p519
tp520
Rp521
sI61965019959
g3
(g47
S'\x16\xf0\xb6\xf0JD\xd2?'
p522
tp523
Rp524
sI61961024824
g3
(g47
S'\x00\x00\x00\x00\x00\x00\xf8\xff'
p525
tp526
Rp527
sI61965019962
g3
(g47
S'\x00\x00\x00\x00\x00\x00\xf8\xff'
p528
tp529
Rp530
sI61965359937
g3
(g47
S'\x00\x00\x00\x00\x00\x00\xf8\xff'
p531
tp532
Rp533
sI61961078595
g3
(g47
S'\x00\x00\x00\x00\x00\x00\xf8\xff'
p534
tp535
Rp536
sI61965359944
g3
(g47
S'\x00\x00\x00\x00\x00\x00\xf8\xff'
p537
tp538
Rp539
sI61965359948
g3
(g47
S'\x00\x00\x00\x00\x00\x00\xf8\xff'
p540
tp541
Rp542
sI61965019982
g3
(g47
S'\xc9\xe7\xeeqn\x7f\xb0?'
p543
tp544
Rp545
sI61965019983
g3
(g47
S'\x00\x00\x00\x00\x00\x00\xf8\xff'
p546
tp547
Rp548
sg24
g3
(g47
S'\x00\x00\x00\x00\x00\x00\xf8\xff'
p549
tp550
Rp551
sI61965019987
g3
(g47
S'\x00\x00\x00\x00\x00\x00\xf8\xff'
p552
tp553
Rp554
sI61961024853
g3
(g47
S'\x00\x00\x00\x00\x00\x00\xf8\xff'
p555
tp556
Rp557
sI61965019992
g3
(g47
S'\x85\x19~t\xe8o\xdc?'
p558
tp559
Rp560
sI61965019994
g3
(g47
S'\xbdmy\xa7w\xfej?'
p561
tp562
Rp563
sI61961078619
g3
(g47
S'\x00\x00\x00\x00\x00\x00\x00\x00'
p564
tp565
Rp566
sI61965019996
g3
(g47
S'\x00\x00\x00\x00\x00\x00\xf8\xff'
p567
tp568
Rp569
sg27
g3
(g47
S'\x00\x00\x00\x00\x00\x00\xf8\xff'
p570
tp571
Rp572
sI61961024868
g3
(g47
S'\x00\x00\x00\x00\x00\x00\xf8\xff'
p573
tp574
Rp575
sI61965020009
g3
(g47
S'U\\\xb0\xf0\xab\xae:?'
p576
tp577
Rp578
sI61965359983
g3
(g47
S'\x00\x00\x00\x00\x00\x00\xf8\xff'
p579
tp580
Rp581
sI61961024881
g3
(g47
S'\x00\x00\x00\x00\x00\x00\xf8\xff'
p582
tp583
Rp584
sI61965020019
g3
(g47
S'\x00\x00\x00\x00\x00\x00\xf8\xff'
p585
tp586
Rp587
sg30
g3
(g47
S'\x00\x00\x00\x00\x00\x00\xf8\xff'
p588
tp589
Rp590
sI61965020021
g3
(g47
S'\x00\x00\x00\x00\x00\x00\xf8\xff'
p591
tp592
Rp593
sg33
g3
(g47
S'\x00\x00\x00\x00\x00\x00\x00\x00'
p594
tp595
Rp596
sI61965359991
g3
(g47
S'\x00\x00\x00\x00\x00\x00\xf8\xff'
p597
tp598
Rp599
sg36
g3
(g47
S'\x00\x00\x00\x00\x00\x00\xf8\xff'
p600
tp601
Rp602
sI61961024891
g3
(g47
S'\x00\x00\x00\x00\x00\x00\xf8\xff'
p603
tp604
Rp605
sI61965020029
g3
(g47
S'\xc52\xb4\xef?\xcb\xaf?'
p606
tp607
Rp608
sI61961024911
g3
(g47
S'\x00\x00\x00\x00\x00\x00\xf8\xff'
p609
tp610
Rp611
sI61961024912
g3
(g47
S'\x00\x00\x00\x00\x00\x00\xf8\xff'
p612
tp613
Rp614
sI61961024927
g3
(g47
S'\x00\x00\x00\x00\x00\x00\xf8\xff'
p615
tp616
Rp617
sI61961024929
g3
(g47
S'\x00\x00\x00\x00\x00\x00\xf8\xff'
p618
tp619
Rp620
sI61961024937
g3
(g47
S'\x00\x00\x00\x00\x00\x00\xf8\xff'
p621
tp622
Rp623
sI61961024938
g3
(g47
S'\x00\x00\x00\x00\x00\x00\xf8\xff'
p624
tp625
Rp626
sI61961024943
g3
(g47
S'\x00\x00\x00\x00\x00\x00\xf8\xff'
p627
tp628
Rp629
sI61965360050
g3
(g47
S'\x00\x00\x00\x00\x00\x00\xf8\xff'
p630
tp631
Rp632
sI61961024950
g3
(g47
S'\x00\x00\x00\x00\x00\x00\xf8\xff'
p633
tp634
Rp635
sI61961024951
g3
(g47
S'\x00\x00\x00\x00\x00\x00\xf8\xff'
p636
tp637
Rp638
sI61964944313
g3
(g47
S'\x00\x00\x00\x00\x00\x00\xf8\xff'
p639
tp640
Rp641
sI61964979130
g3
(g47
S'\x94m[\xd1\xfa\xcb\xba?'
p642
tp643
Rp644
sI61961024956
g3
(g47
S'\x00\x00\x00\x00\x00\x00\xf8\xff'
p645
tp646
Rp647
sI61964979139
g3
(g47
S'\x00\x00\x00\x00\x00\x00\xf8\xff'
p648
tp649
Rp650
sI61961024968
g3
(g47
S'\x00\x00\x00\x00\x00\x00\xf8\xff'
p651
tp652
Rp653
sI61964979150
g3
(g47
S'\x9ajKy\x18\x9a\xaa?'
p654
tp655
Rp656
sI61964979153
g3
(g47
S'\x00\x00\x00\x00\x00\x00\xf8\xff'
p657
tp658
Rp659
sI61964979154
g3
(g47
S'\x00\x00\x00\x00\x00\x00\xf8\xff'
p660
tp661
Rp662
sg39
g3
(g47
S'\x00\x00\x00\x00\x00\x00\xf8\xff'
p663
tp664
Rp665
sI61964979158
g3
(g47
S'\x00\x00\x00\x00\x00\x00\xf8\xff'
p666
tp667
Rp668
sI61960619991
g3
(g47
S'\x00\x00\x00\x00\x00\x00\xf8\xff'
p669
tp670
Rp671
sI61964979163
g3
(g47
S'\x00\x00\x00\x00\x00\x00\xf8\xff'
p672
tp673
Rp674
sI61964944350
g3
(g47
S'\x00\x00\x00\x00\x00\x00\xf8\xff'
p675
tp676
Rp677
sg42
g3
(g47
S'\x00\x00\x00\x00\x00\x00\xf8\xff'
p678
tp679
Rp680
sI413787380563
g3
(g47
S'\x00\x00\x00\x00\x00\x00\xf8\xff'
p681
tp682
Rp683
ssS'avg_deg'
p684
(dp685
I61961025033
F0.007755779252594545
sI61961025054
F0.0034575297314150843
sI61960946207
F0.005868335486169885
sI61961025059
F0.007967351120217346
sI61960946218
F0.0030455213576232707
sg12
F0.00042871141597256246
sI61961025073
F0.0003451962050688167
sI61964961871
F0.00011135361453832792
sg15
F9.465057235757874e-05
sI61965020015
F0.00023941027125740503
sg18
F2.7838403634581982e-05
sI61964943979
F4.454144581533117e-05
sI61964943982
F3.897376508841478e-05
sI61964943984
F0.00042871141597256246
sI61964943986
F0.0001280566567190771
sI61964943996
F0.0003340608436149838
sI61964961925
F4.454144581533117e-05
sI413791240838
F0.00542848870874349
sI61964961927
F2.7838403634581982e-05
sI61964972168
F0.0005289296690570576
sI61964944011
F4.4541445815331164e-05
sI61964944018
F0.00033962852434190016
sI61961024963
F0.004136786780098885
sI61964944027
F0.00023941027125740503
sI61964944035
F0.00028951939779965267
sI61964944038
F0.00047325286178789367
sI61960946349
F0.001447596988998264
sI61964944046
F0.0004732528617878936
sI61961025202
F0.0025165916885662126
sI14720303796
F0.0
sI61964944053
F3.3406084361498376e-05
sI61964944054
F0.00034519620506881656
sI61964944057
F2.7838403634581982e-05
sg21
F8.351521090374595e-05
sI61961078559
F0.0007739076210413795
sI61964944064
F0.00021713954834973946
sI61964944067
F3.3406084361498376e-05
sI61961024887
F0.003947485635383727
sI61961353423
F0.006564295577034435
sI61965359909
F0.0002616809941650706
sI413791240929
F0.001197051356287026
sI61964944337
F0.0003284931628880674
sI61961078506
F0.009882633290276575
sI61964944341
F8.908289163066234e-05
sI61965359883
F3.897376508841478e-05
sI61965359903
F0.0004342790966994789
sI61961263393
F0.0
sI61961078565
F0.005389514943655075
sI61961078566
F0.0008574228319451255
sI61961078573
F0.004977506569863261
sI61965359920
F0.0003006547592534854
sI61965019959
F2.2270722907665585e-05
sI61961024824
F0.0054117856665627405
sI61965019962
F7.794753017682954e-05
sI61965359937
F3.897376508841478e-05
sI61961078595
F0.001364081778094518
sI61965359944
F0.0002449779519843214
sI61965359948
F0.0002895193977996526
sI61965019982
F0.0002282749098035722
sI61965019983
F0.0002561133134381542
sg24
F0.002260478375128058
sI61965019987
F5.5676807269163965e-05
sI61961024853
F0.0029341677430849426
sI61965019992
F0.0002783840363458198
sI61965019994
F2.2270722907665585e-05
sI61961078619
F0.0
sI61965019996
F8.908289163066233e-05
sg27
F4.4541445815331164e-05
sI61961024868
F0.004771502382967354
sI61965020009
F2.7838403634581982e-05
sI61965359983
F0.0003006547592534854
sI61961024881
F0.000573471114872389
sI61965020019
F0.0001280566567190771
sg30
F0.007382744643891146
sI61965020021
F0.00029508707852656896
sg33
F0.0
sI61965359991
F0.000991047169391119
sg36
F8.908289163066234e-05
sI61961024891
F0.005344973497839744
sI61965020029
F6.124448799608035e-05
sI61961024911
F0.00200993274241682
sI61961024912
F0.0026557837067391226
sI61961024927
F0.001954255935147656
sI61961024929
F0.01836777871809688
sI61961024937
F0.005194646118213001
sI61961024938
F0.0022938844594895566
sI61961024943
F0.004381764732083206
sI61965360050
F0.0001280566567190771
sI61961024950
F0.00013919201817290993
sI61961024951
F0.003312770032515258
sI61964944313
F0.00025054563271123786
sI61964979130
F4.454144581533117e-05
sI61961024956
F0.0017983608747939972
sI61964979139
F0.0002895193977996526
sI61961024968
F0.0020544741882321514
sI61964979150
F0.00026168099416507066
sI61964979153
F8.908289163066234e-05
sI61964979154
F0.00033406084361498376
sg39
F0.0038751057859338143
sI61964979158
F0.0002783840363458198
sI61960619991
F0.004275978798271795
sI61964979163
F0.0001391920181729099
sI61964944350
F0.00023384259053048863
sg42
F9.465057235757873e-05
sI413787380563
F0.0009632087657565369
ssS't_cl'
p686
(dp687
I61961025033
g3
(g47
S'*\xbb[\xbc\x80U\x9e?'
p688
tp689
Rp690
sI61961025054
g3
(g47
S'zk|\xdf\xae\x0b\x95?'
p691
tp692
Rp693
sI61960946207
g3
(g47
S'\xecI\x89H\x06\xa1\x99?'
p694
tp695
Rp696
sI61961025059
g3
(g47
S'j\xa7\xd4n\x85\xf9\x9f?'
p697
tp698
Rp699
sI61960946218
g3
(g47
S'\x9a\x08\x92\x13tI\x95?'
p700
tp701
Rp702
sg12
g3
(g47
S"\xb1\xeb%x\x1f't?"
p703
tp704
Rp705
sI61961025073
g3
(g47
S'\xc4\xf1\x19\xf6\x8c\x8f\x83?'
p706
tp707
Rp708
sI61964961871
g3
(g47
S'% \xe9\n\x12\x93p?'
p709
tp710
Rp711
sg15
g3
(g47
S'\xa5-\xa9d\xbd\xd0_?'
p712
tp713
Rp714
sI61965020015
g3
(g47
S'\xe1X=\xb5b~s?'
p715
tp716
Rp717
sg18
g3
(g47
S'\x0c?l\x8f\x87te?'
p718
tp719
Rp720
sI61964943979
g3
(g47
S'W\x8b[\xaf"\x19j?'
p721
tp722
Rp723
sI61964943982
g3
(g47
S'l\xb8\xce\xdf\xc0\xd0k?'
p724
tp725
Rp726
sI61964943984
g3
(g47
S'7+\xe9e\x16\x8du?'
p727
tp728
Rp729
sI61964943986
g3
(g47
S'\xfe\x87\xde\xe2a\x80r?'
p730
tp731
Rp732
sI61964943996
g3
(g47
S'd\x9bq\xd0\xe8\xffs?'
p733
tp734
Rp735
sI61964961925
g3
(g47
S'\xba\xb8\xe6Gm`g?'
p736
tp737
Rp738
sI413791240838
g3
(g47
S'\xb2ji*_\xe5\x98?'
p739
tp740
Rp741
sI61964961927
g3
(g47
S'$\x04\xe2\xb5\xde\xf2h?'
p742
tp743
Rp744
sI61964972168
g3
(g47
S'9\xc9\x94\xde\x01Gv?'
p745
tp746
Rp747
sI61964944011
g3
(g47
S'n\xb2\xd5i\xbc\x1di?'
p748
tp749
Rp750
sI61964944018
g3
(g47
S'W7z\x0f9\x19q?'
p751
tp752
Rp753
sI61961024963
g3
(g47
S'\x9a\xd7\xd9u1\x04\x99?'
p754
tp755
Rp756
sI61964944027
g3
(g47
S'v\xfa&fh\xa5t?'
p757
tp758
Rp759
sI61964944035
g3
(g47
S'\x8d&\xb3r\xcc\x9ds?'
p760
tp761
Rp762
sI61964944038
g3
(g47
S'R/\xae!\xc8\xfcs?'
p763
tp764
Rp765
sI61960946349
g3
(g47
S'F\xd1\xb1Y\x83A\x8c?'
p766
tp767
Rp768
sI61964944046
g3
(g47
S'4\xd8\xac\xe1\xdf\x7fv?'
p769
tp770
Rp771
sI61961025202
g3
(g47
S'p\x94\xf6\x017\x80\x86?'
p772
tp773
Rp774
sI14720303796
g3
(g47
S'\x00\x00\x00\x00\x00\x00\x00\x00'
p775
tp776
Rp777
sI61964944053
g3
(g47
S'\xa3\xba\r\xb7\x0f-i?'
p778
tp779
Rp780
sI61964944054
g3
(g47
S'B-@\xf5\x9b\x12v?'
p781
tp782
Rp783
sI61964944057
g3
(g47
S'\r\xfdq\xa2s\x1bi?'
p784
tp785
Rp786
sg21
g3
(g47
S'[\x18\xd6-R\xa9j?'
p787
tp788
Rp789
sI61961078559
g3
(g47
S'\xaaz\x85\xad=\x8f\x80?'
p790
tp791
Rp792
sI61964944064
g3
(g47
S'4b\xe5]\x85\xe5s?'
p793
tp794
Rp795
sI61964944067
g3
(g47
S'\x11\x16e\xb9\x13\xfde?'
p796
tp797
Rp798
sI61961024887
g3
(g47
S'\t,"\x0c\xac\x80\x95?'
p799
tp800
Rp801
sI61961353423
g3
(g47
S'\xf01^\xd9\x0fw\x99?'
p802
tp803
Rp804
sI61965359909
g3
(g47
S'\x1c\xc6\x04i\xe2Vl?'
p805
tp806
Rp807
sI413791240929
g3
(g47
S'X\xe1\x1b\r;\xb0\x87?'
p808
tp809
Rp810
sI61964944337
g3
(g47
S'+4\xb5\xbe\x89\x03t?'
p811
tp812
Rp813
sI61961078506
g3
(g47
S'd\n?\x9ef\x84\xa0?'
p814
tp815
Rp816
sI61964944341
g3
(g47
S'\x06k\xf9\xc1\x85\x8cm?'
p817
tp818
Rp819
sI61965359883
g3
(g47
S'\xc5A\xc3\x8do\xaci?'
p820
tp821
Rp822
sI61965359903
g3
(g47
S'L"\x06\xb3\x00)s?'
p823
tp824
Rp825
sI61961263393
g3
(g47
S'\x00\x00\x00\x00\x00\x00\x00\x00'
p826
tp827
Rp828
sI61961078565
g3
(g47
S'\xb2\xb9n[\x82\xff\x98?'
p829
tp830
Rp831
sI61961078566
g3
(g47
S'\x98\x9b\xef\xe8l\xafq?'
p832
tp833
Rp834
sI61961078573
g3
(g47
S'\xbe\x8al~\xb5q\x97?'
p835
tp836
Rp837
sI61965359920
g3
(g47
S'\xd7\xda\xd9\x8e\xcbby?'
p838
tp839
Rp840
sI61965019959
g3
(g47
S'\xae\xbaNZ\xf2\xadi?'
p841
tp842
Rp843
sI61961024824
g3
(g47
S'\xa8/\xb7\x14\xe1b\x98?'
p844
tp845
Rp846
sI61965019962
g3
(g47
S'\x1e\xb6(\xa6\xcfmk?'
p847
tp848
Rp849
sI61965359937
g3
(g47
S'\xa9S\xe2\x19\x1a\xfdg?'
p850
tp851
Rp852
sI61961078595
g3
(g47
S'\x8e\x99\x86\xe3\xb3&\x90?'
p853
tp854
Rp855
sI61965359944
g3
(g47
S'\x16\xa1d\x0b\xa7\xafw?'
p856
tp857
Rp858
sI61965359948
g3
(g47
S'+\x0f&\xcc\x80+t?'
p859
tp860
Rp861
sI61965019982
g3
(g47
S'\n\xdbV\x94\xaf\x0cl?'
p862
tp863
Rp864
sI61965019983
g3
(g47
S's\x14\x81\x9a\x80\xd4t?'
p865
tp866
Rp867
sg24
g3
(g47
S'\xef\x86|?\xb6F\x91?'
p868
tp869
Rp870
sI61965019987
g3
(g47
S'i\xe3h \x91eq?'
p871
tp872
Rp873
sI61961024853
g3
(g47
S'\x99\xfa\xfe\xf6&8\x95?'
p874
tp875
Rp876
sI61965019992
g3
(g47
S'J,d4\x1a\x83s?'
p877
tp878
Rp879
sI61965019994
g3
(g47
S'f\xf8\xb1\xc6\r\xd3d?'
p880
tp881
Rp882
sI61961078619
g3
(g47
S'\x00\x00\x00\x00\x00\x00\x00\x00'
p883
tp884
Rp885
sI61965019996
g3
(g47
S'\x026/\xb6a"l?'
p886
tp887
Rp888
sg27
g3
(g47
S'tVp\x14\xd7\xd5o?'
p889
tp890
Rp891
sI61961024868
g3
(g47
S'\xc5o\xfb\xc3$\x01\x98?'
p892
tp893
Rp894
sI61965020009
g3
(g47
S'o\x11\xb0u#\xbcg?'
p895
tp896
Rp897
sI61965359983
g3
(g47
S'\x8d\xa8\x9a\x82\x05ir?'
p898
tp899
Rp900
sI61961024881
g3
(g47
S'\xe7b\x1d\x99O\x11{?'
p901
tp902
Rp903
sI61965020019
g3
(g47
S'\x16\xcd\x0f7Y\xcfp?'
p904
tp905
Rp906
sg30
g3
(g47
S'\x03\xe4\x0f\xdej\xa5\x9c?'
p907
tp908
Rp909
sI61965020021
g3
(g47
S'4\x7fU\x86\x16Mt?'
p910
tp911
Rp912
sg33
g3
(g47
S'\x00\x00\x00\x00\x00\x00\x00\x00'
p913
tp914
Rp915
sI61965359991
g3
(g47
S'Z\xc3\xdd)\x89\xaf\x83?'
p916
tp917
Rp918
sg36
g3
(g47
S'b\x1d \xe4\xe35j?'
p919
tp920
Rp921
sI61961024891
g3
(g47
S'}T\r\xe8\xa6\x93\x9d?'
p922
tp923
Rp924
sI61965020029
g3
(g47
S'\xdc\x8d\x95\x94\xcf\xb8h?'
p925
tp926
Rp927
sI61961024911
g3
(g47
S'\xb9w!mJ\x90\x8d?'
p928
tp929
Rp930
sI61961024912
g3
(g47
S'(\x87\xe0\xdb4\x86\x91?'
p931
tp932
Rp933
sI61961024927
g3
(g47
S's,\xfb2\xf1|\x8f?'
p934
tp935
Rp936
sI61961024929
g3
(g47
S'7D\x86\x08.z\xa5?'
p937
tp938
Rp939
sI61961024937
g3
(g47
S'\xaf|\x10\xc1\rQ\x98?'
p940
tp941
Rp942
sI61961024938
g3
(g47
S'\x85\xf8\x04\xad\xb7\xfe\x8f?'
p943
tp944
Rp945
sI61961024943
g3
(g47
S'\xc3$\xe6\xc87\x1f\x96?'
p946
tp947
Rp948
sI61965360050
g3
(g47
S'\x9a\xebM\xad\xce\xffp?'
p949
tp950
Rp951
sI61961024950
g3
(g47
S'\xa9v\xb9\x10\xba(u?'
p952
tp953
Rp954
sI61961024951
g3
(g47
S'\x84\xb3\xce|\xad\x95\x91?'
p955
tp956
Rp957
sI61964944313
g3
(g47
S'P\xb8\xf1\x96\xe0.u?'
p958
tp959
Rp960
sI61964979130
g3
(g47
S'Tc\x15\x07\x18Zg?'
p961
tp962
Rp963
sI61961024956
g3
(g47
S'\xdf\xaf\xa3\xdd-9\x91?'
p964
tp965
Rp966
sI61964979139
g3
(g47
S'\xac\xa5\xc4[\x14\xfcu?'
p967
tp968
Rp969
sI61961024968
g3
(g47
S'\x17\x80.\xe4WE\x90?'
p970
tp971
Rp972
sI61964979150
g3
(g47
S'RgS\x96\xf3is?'
p973
tp974
Rp975
sI61964979153
g3
(g47
S'\xcf\x86\xf3d\x83\x0cs?'
p976
tp977
Rp978
sI61964979154
g3
(g47
S'L\xbb\xab1\xc5\xd9t?'
p979
tp980
Rp981
sg39
g3
(g47
S'\x0b\x8e\x98\xe3u\xec\x7f?'
p982
tp983
Rp984
sI61964979158
g3
(g47
S'\xeck\x97%\xd0\xbdr?'
p985
tp986
Rp987
sI61960619991
g3
(g47
S'M\xa1\x01\x08\x17\xb6\x97?'
p988
tp989
Rp990
sI61964979163
g3
(g47
S'\x17\xa4\x8c\xc2&wt?'
p991
tp992
Rp993
sI61964944350
g3
(g47
S';\x94U3\x84\x15u?'
p994
tp995
Rp996
sg42
g3
(g47
S'\x00\xf4\xa0v\xc2\x0ek?'
p997
tp998
Rp999
sI413787380563
g3
(g47
S'<\x1eh\xa6\x0bG~?'
p1000
tp1001
Rp1002
ssS'avg_cl'
p1003
(dp1004
I61961025033
F0.01364600115906407
sI61961025054
F0.0073322502799437325
sI61960946207
F0.010901753449505348
sI61961025059
F0.014929085026841711
sI61960946218
F0.007742525445609984
sg12
F0.0007765825167554799
sI61961025073
F0.0007675592616944604
sI61964961871
F0.0002689865769104301
sg15
F0.00026415962901714515
sI61965020015
F0.0006999708101346403
sg18
F9.540872002455005e-05
sI61964943979
F0.00012830595068113047
sI61964943982
F0.00026711789638922856
sI61964943984
F0.0007389623510481756
sI61964943986
F0.0004628151282716276
sI61964943996
F0.0006963309324390946
sI61964961925
F0.0001596518101810197
sI413791240838
F0.008791730525584894
sI61964961927
F0.00012869326774891964
sI61964972168
F0.0008216567311055282
sI61964944011
F0.00012410126278584514
sI61964944018
F0.00043579680187598544
sI61961024963
F0.009987536227928554
sI61964944027
F0.0006430285516333234
sI61964944035
F0.0008099063747750339
sI61964944038
F0.0007039512030933544
sI61960946349
F0.002348834311361293
sI61964944046
F0.0008788856812749077
sI61961025202
F0.0029533971524466577
sI14720303796
F0.0
sI61964944053
F0.00013001860135618097
sI61964944054
F0.0008735986190840769
sI61964944057
F0.00011510536682330878
sg21
F0.0001909311419197465
sI61961078559
F0.0014251695369838593
sI61964944064
F0.0006427972878777336
sI61964944067
F9.775282583450436e-05
sI61961024887
F0.00806543408773308
sI61961353423
F0.011019257892879285
sI61965359909
F0.000475179579166754
sI413791240929
F0.0036160653194907844
sI61964944337
F0.0005984244746568729
sI61961078506
F0.01486456584124647
sI61964944341
F0.00022170698876001793
sI61965359883
F0.00014279199061807755
sI61965359903
F0.0007448327482607662
sI61961263393
F0.0
sI61961078565
F0.008910007381759028
sI61961078566
F0.001739872719321833
sI61961078573
F0.008322115769213776
sI61965359920
F0.0008592549179530209
sI61965019959
F0.00010319035362463273
sI61961024824
F0.0094395843682541
sI61965019962
F0.00019537101813667511
sI61965359937
F0.00013796289382454123
sI61961078595
F0.004526153552825512
sI61965359944
F0.000801087408786645
sI61965359948
F0.0008156850749605107
sI61965019982
F0.00036452066998560396
sI61965019983
F0.0007852531831543662
sg24
F0.00456473170213713
sI61965019987
F0.00029212061117702646
sI61961024853
F0.0061613307836015235
sI61965019992
F0.0004996018825782801
sI61965019994
F9.21997272529074e-05
sI61961078619
F0.0
sI61965019996
F0.00017670000207132668
sg27
F0.00033456386335917155
sI61961024868
F0.009484471169491294
sI61965020009
F0.00011354572494069937
sI61965359983
F0.000591950145870261
sI61961024881
F0.0009121345865596046
sI61965020019
F0.0004308843639348771
sg30
F0.011273596810375031
sI61965020021
F0.0007896374351508963
sg33
F0.0
sI61965359991
F0.001842580009855938
sg36
F9.233070538803023e-05
sI61961024891
F0.011824778524282141
sI61965020029
F0.0001322214345053554
sI61961024911
F0.0032746455283008684
sI61961024912
F0.004120791919221386
sI61961024927
F0.004862561103430168
sI61961024929
F0.02195555206179735
sI61961024937
F0.008790154345533069
sI61961024938
F0.004058198817796209
sI61961024943
F0.008025413360640235
sI61965360050
F0.00022140158698833143
sI61961024950
F0.0002671518808988156
sI61961024951
F0.005357512034990004
sI61964944313
F0.0007745062456280197
sI61964979130
F0.0001601612862907486
sI61961024956
F0.004567099792709489
sI61964979139
F0.0008146842202174561
sI61961024968
F0.00449698889011531
sI61964979150
F0.00047539511142642086
sI61964979153
F0.0004179255708986637
sI61964979154
F0.0006231946633446265
sg39
F0.0012647174295330073
sI61964979158
F0.0004430167845332881
sI61960619991
F0.008996340446646567
sI61964979163
F0.0005990312957703112
sI61964944350
F0.0007501470889175942
sg42
F0.00018577481921435611
sI413787380563
F0.0011325270350043787
ssS'agg_bt'
p1005
(dp1006
I61961025033
F0.016149685679918507
sI61961025054
F0.002800984158126569
sI61960946207
F0.0006310731661144059
sI61961025059
F0.01984839895908778
sI61960946218
F0.012490559583924992
sg12
F0.004291006214246933
sI61961025073
F0.002207116579387248
sI61964961871
F0.0003826995870462514
sg15
F0.0
sI61965020015
F0.0009649761558876282
sg18
F0.0
sI61964943979
F5.834578043315908e-06
sI61964943982
F1.945834214612958e-05
sI61964943984
F0.0029219692357002236
sI61964943986
F0.0003328106433445478
sI61964943996
F0.0043600925995027654
sI61964961925
F7.312671147622604e-05
sI413791240838
F0.007281905675910558
sI61964961927
F0.0
sI61964972168
F0.003387031883074656
sI61964944011
F7.542349775359485e-05
sI61964944018
F0.002263030137252665
sI61961024963
F0.0008753924914404251
sI61964944027
F0.0016558844608720012
sI61964944035
F0.002112838786018344
sI61964944038
F0.004463420884942902
sI61960946349
F0.0006998252663064122
sI61964944046
F0.0026145456994308702
sI61961025202
F0.005822101965316955
sI14720303796
F0.0
sI61964944053
F0.0003119633824990172
sI61964944054
F0.0017477404866142014
sI61964944057
F0.0
sg21
F0.0011764697398372525
sI61961078559
F0.0024690212322005137
sI61964944064
F0.0009600747801740612
sI61964944067
F0.0
sI61961024887
F0.0011532057938512814
sI61961353423
F0.10833426225517918
sI61965359909
F0.0015222940795784536
sI413791240929
F0.009605421328651075
sI61964944337
F0.004777853758051355
sI61961078506
F0.03666812795285817
sI61964944341
F9.876180992685848e-05
sI61965359883
F1.8670649738610905e-05
sI61965359903
F0.004874173166547404
sI61961263393
F0.0
sI61961078565
F0.023969374682288422
sI61961078566
F6.0709954163694884e-05
sI61961078573
F0.06848863875004223
sI61965359920
F0.005351651701857134
sI61965019959
F0.0
sI61961024824
F0.0010681052216108965
sI61965019962
F3.058733337859551e-05
sI61965359937
F1.5558874782175753e-05
sI61961078595
F0.0005039606736611395
sI61965359944
F0.0008993136933651477
sI61965359948
F0.0011123948616689376
sI61965019982
F0.003084186386654902
sI61965019983
F0.0015066132279825735
sg24
F0.0004745185330706921
sI61965019987
F0.00018922695275310443
sI61961024853
F0.0012041381462166323
sI61965019992
F0.0012353320578566787
sI61965019994
F0.0
sI61961078619
F0.0
sI61965019996
F0.001030778644076507
sg27
F6.31325399993059e-05
sI61961024868
F0.0040039210618839334
sI61965020009
F1.5558874782175753e-05
sI61965359983
F0.00312244350088099
sI61961024881
F0.0050793346083400125
sI61965020019
F0.0012168025998624018
sg30
F0.1003577185891802
sI61965020021
F0.0011070860809994552
sg33
F0.0
sI61965359991
F0.008317547323143468
sg36
F8.401792382374907e-05
sI61961024891
F0.0042313903168867345
sI61965020029
F0.0003390162315284274
sI61961024911
F0.0008511802317988793
sI61961024912
F0.005250495079716858
sI61961024927
F0.0007075115388805565
sI61961024929
F0.16947471129123173
sI61961024937
F0.003489470392599894
sI61961024938
F0.0002552958974497926
sI61961024943
F0.016485019611148424
sI61965360050
F0.0007342774650356976
sI61961024950
F0.0006955474805679473
sI61961024951
F0.004989053129057175
sI61964944313
F0.0011315695839533707
sI61964979130
F3.4229524520786655e-05
sI61961024956
F0.000980594150057228
sI61964979139
F0.0010182068091203417
sI61961024968
F0.0004883989449482099
sI61964979150
F0.0012288356217003533
sI61964979153
F0.0002517723140026174
sI61964979154
F0.0023134884506305665
sg39
F0.00591849201959469
sI61964979158
F0.0030166215768213512
sI61960619991
F0.00323262953179652
sI61964979163
F0.000816814135453584
sI61964944350
F0.0008028469239415619
sg42
F0.0010152330230283311
sI413787380563
F0.0005758382590368958
ssS'agg_deg'
p1007
(dp1008
I61961025033
F0.46153846153846156
sI61961025054
F0.27884615384615385
sI61960946207
F0.22115384615384617
sI61961025059
F0.5192307692307693
sI61960946218
F0.38461538461538464
sg12
F0.40384615384615385
sI61961025073
F0.21153846153846156
sI61964961871
F0.1826923076923077
sg15
F0.057692307692307696
sI61965020015
F0.22115384615384617
sg18
F0.038461538461538464
sI61964943979
F0.04807692307692308
sI61964943982
F0.06730769230769232
sI61964943984
F0.38461538461538464
sI61964943986
F0.13461538461538464
sI61964943996
F0.3653846153846154
sI61964961925
F0.057692307692307696
sI413791240838
F0.33653846153846156
sI61964961927
F0.038461538461538464
sI61964972168
F0.40384615384615385
sI61964944011
F0.057692307692307696
sI61964944018
F0.25961538461538464
sI61961024963
F0.25961538461538464
sI61964944027
F0.2884615384615385
sI61964944035
F0.3269230769230769
sI61964944038
F0.42307692307692313
sI61960946349
F0.22115384615384617
sI61964944046
F0.375
sI61961025202
F0.125
sI14720303796
F0.0
sI61964944053
F0.04807692307692308
sI61964944054
F0.2884615384615385
sI61964944057
F0.038461538461538464
sg21
F0.125
sI61961078559
F0.04807692307692308
sI61964944064
F0.2692307692307693
sI61964944067
F0.038461538461538464
sI61961024887
F0.22115384615384617
sI61961353423
F0.8365384615384616
sI61965359909
F0.27884615384615385
sI413791240929
F0.3653846153846154
sI61964944337
F0.2692307692307693
sI61961078506
F0.5961538461538461
sI61964944341
F0.06730769230769232
sI61965359883
F0.04807692307692308
sI61965359903
F0.40384615384615385
sI61961263393
F0.0
sI61961078565
F0.5480769230769231
sI61961078566
F0.10576923076923078
sI61961078573
F0.6923076923076923
sI61965359920
F0.2884615384615385
sI61965019959
F0.028846153846153848
sI61961024824
F0.3076923076923077
sI61965019962
F0.057692307692307696
sI61965359937
F0.04807692307692308
sI61961078595
F0.13461538461538464
sI61965359944
F0.21153846153846156
sI61965359948
F0.25
sI61965019982
F0.25
sI61965019983
F0.25961538461538464
sg24
F0.22115384615384617
sI61965019987
F0.08653846153846154
sI61961024853
F0.3076923076923077
sI61965019992
F0.25
sI61965019994
F0.028846153846153848
sI61961078619
F0.0
sI61965019996
F0.11538461538461539
sg27
F0.07692307692307693
sI61961024868
F0.31730769230769235
sI61965020009
F0.04807692307692308
sI61965359983
F0.3076923076923077
sI61961024881
F0.06730769230769232
sI61965020019
F0.21153846153846156
sg30
F0.826923076923077
sI61965020021
F0.2403846153846154
sg33
F0.0
sI61965359991
F0.25961538461538464
sg36
F0.038461538461538464
sI61961024891
F0.2403846153846154
sI61965020029
F0.08653846153846154
sI61961024911
F0.2692307692307693
sI61961024912
F0.3269230769230769
sI61961024927
F0.2403846153846154
sI61961024929
F0.9038461538461539
sI61961024937
F0.33653846153846156
sI61961024938
F0.22115384615384617
sI61961024943
F0.44230769230769235
sI61965360050
F0.19230769230769232
sI61961024950
F0.10576923076923078
sI61961024951
F0.22115384615384617
sI61964944313
F0.23076923076923078
sI61964979130
F0.04807692307692308
sI61961024956
F0.21153846153846156
sI61964979139
F0.22115384615384617
sI61961024968
F0.20192307692307693
sI61964979150
F0.25961538461538464
sI61964979153
F0.09615384615384616
sI61964979154
F0.2692307692307693
sg39
F0.11538461538461539
sI61964979158
F0.2980769230769231
sI61960619991
F0.2692307692307693
sI61964979163
F0.19230769230769232
sI61964944350
F0.21153846153846156
sg42
F0.125
sI413787380563
F0.21153846153846156
ss.