(dp0
S'agg_cl'
p1
(dp2
I61961025033
F0.24813895781637718
sI61961025054
F0.23310023310023312
sI61960946207
F0.23310023310023312
sI61961025059
F0.23310023310023312
sI61960946218
F0.2403846153846154
scnumpy.core.multiarray
scalar
p3
(cnumpy
dtype
p4
(S'i8'
p5
I0
I1
tp6
Rp7
(I3
S'<'
p8
NNNI-1
I-1
I0
tp9
bS'\xb2\x02fm\x0e\x00\x00\x00'
p10
tp11
Rp12
F0.0
sI61961025073
F0.2107481559536354
sI61964961871
F0.0
sg3
(g7
S'\xba%\x8cW`\x00\x00\x00'
p13
tp14
Rp15
F0.18315018315018314
sI61965020015
F0.0
sg3
(g7
S'\xd5\x8bfm\x0e\x00\x00\x00'
p16
tp17
Rp18
F0.0
sI61964943979
F0.0
sI61964943982
F0.0
sI61964943984
F0.0
sI61964943986
F0.0
sI61964943996
F0.0
sI61964961925
F0.0
sI413791240838
F0.2366863905325444
sI61964961927
F0.0
sI61964972168
F0.0
sI61964944011
F0.0
sI61964944018
F0.0
sI61961024963
F0.2403846153846154
sI61964944027
F0.0
sI61964944035
F0.0
sI61964944038
F0.0
sI61960946349
F0.19230769230769232
sI61964944046
F0.0
sI61961025202
F0.2107481559536354
sI14720303796
F0.0
sI61964944053
F0.0
sI61964944054
F0.0
sI61964944057
F0.0
sg3
(g7
S'\xba\x02fm\x0e\x00\x00\x00'
p19
tp20
Rp21
F0.0
sI61961078559
F0.19980019980019978
sI61964944064
F0.0
sI61964944067
F0.0
sI61961024887
F0.2366863905325444
sI61961353423
F0.21668472372697728
sI61965359909
F0.0
sI413791240929
F0.1586042823156225
sI61964944337
F0.0
sI61961078506
F0.25220680958385877
sI61964944341
F0.0
sI61965359883
F0.0
sI61965359903
F0.0
sI61961263393
F0.0
sI61961078565
F0.2607561929595828
sI61961078566
F0.19980019980019978
sI61961078573
F0.27472527472527475
sI61965359920
F0.0
sI61965019959
F0.0
sI61961024824
F0.2607561929595828
sI61965019962
F0.0
sI61965359937
F0.0
sI61961078595
F0.17889087656529518
sI61965359944
F0.0
sI61965359948
F0.0
sI61965019982
F0.0
sI61965019983
F0.0
sg3
(g7
S'R\x07+m\x0e\x00\x00\x00'
p22
tp23
Rp24
F0.22624434389140274
sI61965019987
F0.0
sI61961024853
F0.21978021978021978
sI61965019992
F0.0
sI61965019994
F0.0
sI61961078619
F0.0
sI61965019996
F0.0
sg3
(g7
S'`[lm\x0e\x00\x00\x00'
p25
tp26
Rp27
F0.0
sI61961024868
F0.25220680958385877
sI61965020009
F0.0
sI61965359983
F0.0
sI61961024881
F0.20242914979757085
sI61965020019
F0.0
sg3
(g7
S't5*m\x0e\x00\x00\x00'
p28
tp29
Rp30
F0.2403846153846154
sI61965020021
F0.0
sg3
(g7
S'v5*m\x0e\x00\x00\x00'
p31
tp32
Rp33
F0.0
sI61965359991
F0.2079002079002079
sg3
(g7
S'x5*m\x0e\x00\x00\x00'
p34
tp35
Rp36
F0.1386001386001386
sI61961024891
F0.22624434389140274
sI61965020029
F0.0
sI61961024911
F0.24813895781637718
sI61961024912
F0.21978021978021978
sI61961024927
F0.25220680958385877
sI61961024929
F0.32733224222585927
sI61961024937
F0.26525198938992045
sI61961024938
F0.22624434389140274
sI61961024943
F0.2366863905325444
sI61965360050
F0.0
sI61961024950
F0.0
sI61961024951
F0.22624434389140274
sI61964944313
F0.0
sI61964979130
F0.0
sI61961024956
F0.2079002079002079
sI61964979139
F0.0
sI61961024968
F0.2136752136752137
sI61964979150
F0.0
sI61964979153
F0.0
sI61964979154
F0.0
sg3
(g7
S'N\x07+m\x0e\x00\x00\x00'
p37
tp38
Rp39
F0.19980019980019978
sI61964979158
F0.0
sI61960619991
F0.22296544035674473
sI61964979163
F0.0
sI61964944350
F0.0
sg3
(g7
S'\xf2\x03fm\x0e\x00\x00\x00'
p40
tp41
Rp42
F0.0
sI413787380563
F0.0
ssS't_deg'
p43
(dp44
I61961025033
g3
(g4
(S'f8'
p45
I0
I1
tp46
Rp47
(I3
S'<'
p48
NNNI-1
I-1
I0
tp49
bS'\xbd\x94\xffJ\x8f\xce\x91?'
p50
tp51
Rp52
sI61961025054
g3
(g47
S'\x9b\xe5tC\xd5\xe1\x87?'
p53
tp54
Rp55
sI61960946207
g3
(g47
S'\xc0\x87\x14\xa5\x92v\x97?'
p56
tp57
Rp58
sI61961025059
g3
(g47
S'\x9b\xe5tC\xd5\xe1\x97?'
p59
tp60
Rp61
sI61960946218
g3
(g47
S'\x14;\xb1\x13;\xb1\x83?'
p62
tp63
Rp64
sg12
g3
(g47
S'\x00\x00\x00\x00\x00\x00\x00\x00'
p65
tp66
Rp67
sI61961025073
g3
(g47
S')\xff\x95\x1e\x9d#i?'
p68
tp69
Rp70
sI61964961871
g3
(g47
S'\x00\x00\x00\x00\x00\x00\x00\x00'
p71
tp72
Rp73
sg15
g3
(g47
S'\x93v\x17\x98\xa7\xd0:?'
p74
tp75
Rp76
sI61965020015
g3
(g47
S'\x00\x00\x00\x00\x00\x00\x00\x00'
p77
tp78
Rp79
sg18
g3
(g47
S'\x00\x00\x00\x00\x00\x00\x00\x00'
p80
tp81
Rp82
sI61964943979
g3
(g47
S'\x00\x00\x00\x00\x00\x00\x00\x00'
p83
tp84
Rp85
sI61964943982
g3
(g47
S'\x00\x00\x00\x00\x00\x00\x00\x00'
p86
tp87
Rp88
sI61964943984
g3
(g47
S'\x00\x00\x00\x00\x00\x00\x00\x00'
p89
tp90
Rp91
sI61964943986
g3
(g47
S'\x00\x00\x00\x00\x00\x00\x00\x00'
p92
tp93
Rp94
sI61964943996
g3
(g47
S'\x00\x00\x00\x00\x00\x00\x00\x00'
p95
tp96
Rp97
sI61964961925
g3
(g47
S'\x00\x00\x00\x00\x00\x00\x00\x00'
p98
tp99
Rp100
sI413791240838
g3
(g47
S'\x14;\xb1\x13;\xb1\x83?'
p101
tp102
Rp103
sI61964961927
g3
(g47
S'\x00\x00\x00\x00\x00\x00\x00\x00'
p104
tp105
Rp106
sI61964972168
g3
(g47
S'\x00\x00\x00\x00\x00\x00\x00\x00'
p107
tp108
Rp109
sI61964944011
g3
(g47
S'\x00\x00\x00\x00\x00\x00\x00\x00'
p110
tp111
Rp112
sI61964944018
g3
(g47
S'\x00\x00\x00\x00\x00\x00\x00\x00'
p113
tp114
Rp115
sI61961024963
g3
(g47
S'?\xc3z)\xff\x95\x8e?'
p116
tp117
Rp118
sI61964944027
g3
(g47
S'\x00\x00\x00\x00\x00\x00\x00\x00'
p119
tp120
Rp121
sI61964944035
g3
(g47
S'\x00\x00\x00\x00\x00\x00\x00\x00'
p122
tp123
Rp124
sI61964944038
g3
(g47
S'\x00\x00\x00\x00\x00\x00\x00\x00'
p125
tp126
Rp127
sI61960946349
g3
(g47
S'W\x10\x93+\x88\xc9e?'
p128
tp129
Rp130
sI61964944046
g3
(g47
S'\x00\x00\x00\x00\x00\x00\x00\x00'
p131
tp132
Rp133
sI61961025202
g3
(g47
S'\xee\x98\x11\xb2}\x1c\x84?'
p134
tp135
Rp136
sI14720303796
g3
(g47
S'\x00\x00\x00\x00\x00\x00\x00\x00'
p137
tp138
Rp139
sI61964944053
g3
(g47
S'\x00\x00\x00\x00\x00\x00\x00\x00'
p140
tp141
Rp142
sI61964944054
g3
(g47
S'\x00\x00\x00\x00\x00\x00\x00\x00'
p143
tp144
Rp145
sI61964944057
g3
(g47
S'\x00\x00\x00\x00\x00\x00\x00\x00'
p146
tp147
Rp148
sg21
g3
(g47
S'\x00\x00\x00\x00\x00\x00\x00\x00'
p149
tp150
Rp151
sI61961078559
g3
(g47
S'\xce\xdc\x9b\x04\xc7\xd7o?'
p152
tp153
Rp154
sI61964944064
g3
(g47
S'\x00\x00\x00\x00\x00\x00\x00\x00'
p155
tp156
Rp157
sI61964944067
g3
(g47
S'\x00\x00\x00\x00\x00\x00\x00\x00'
p158
tp159
Rp160
sI61961024887
g3
(g47
S'\x1c\xaa\x0e\xbfh\xc2\x90?'
p161
tp162
Rp163
sI61961353423
g3
(g47
S'\xde\xbaV["\xfay?'
p164
tp165
Rp166
sI61965359909
g3
(g47
S'\x00\x00\x00\x00\x00\x00\x00\x00'
p167
tp168
Rp169
sI413791240929
g3
(g47
S'\x93v\x17\x98\xa7\xd0*?'
p170
tp171
Rp172
sI61964944337
g3
(g47
S'\x00\x00\x00\x00\x00\x00\x00\x00'
p173
tp174
Rp175
sI61961078506
g3
(g47
S'\xfb8(\xe0C\x8a\xa2?'
p176
tp177
Rp178
sI61964944341
g3
(g47
S'\x00\x00\x00\x00\x00\x00\x00\x00'
p179
tp180
Rp181
sI61965359883
g3
(g47
S'\x00\x00\x00\x00\x00\x00\x00\x00'
p182
tp183
Rp184
sI61965359903
g3
(g47
S'\x00\x00\x00\x00\x00\x00\x00\x00'
p185
tp186
Rp187
sI61961263393
g3
(g47
S'\x00\x00\x00\x00\x00\x00\x00\x00'
p188
tp189
Rp190
sI61961078565
g3
(g47
S'\xd6K\xf9\xaf\xf4\xe8\x8c?'
p191
tp192
Rp193
sI61961078566
g3
(g47
S'\xde\xbaV["\xfay?'
p194
tp195
Rp196
sI61961078573
g3
(g47
S'\xab\xc3/\x9a0\x04\x92?'
p197
tp198
Rp199
sI61965359920
g3
(g47
S'\x00\x00\x00\x00\x00\x00\x00\x00'
p200
tp201
Rp202
sI61965019959
g3
(g47
S'\x00\x00\x00\x00\x00\x00\x00\x00'
p203
tp204
Rp205
sI61961024824
g3
(g47
S'D?\xc3z)\xff\x95?'
p206
tp207
Rp208
sI61965019962
g3
(g47
S'\x00\x00\x00\x00\x00\x00\x00\x00'
p209
tp210
Rp211
sI61965359937
g3
(g47
S'\x00\x00\x00\x00\x00\x00\x00\x00'
p212
tp213
Rp214
sI61961078595
g3
(g47
S'ee\x1a\x8b\xbc*n?'
p215
tp216
Rp217
sI61965359944
g3
(g47
S'\x00\x00\x00\x00\x00\x00\x00\x00'
p218
tp219
Rp220
sI61965359948
g3
(g47
S'\x00\x00\x00\x00\x00\x00\x00\x00'
p221
tp222
Rp223
sI61965019982
g3
(g47
S'\x00\x00\x00\x00\x00\x00\x00\x00'
p224
tp225
Rp226
sI61965019983
g3
(g47
S'\x00\x00\x00\x00\x00\x00\x00\x00'
p227
tp228
Rp229
sg24
g3
(g47
S'9\xddPu\xf8E\x83?'
p230
tp231
Rp232
sI61965019987
g3
(g47
S'\x00\x00\x00\x00\x00\x00\x00\x00'
p233
tp234
Rp235
sI61961024853
g3
(g47
S'\x1a!\xdb\xc7A\x01\x7f?'
p236
tp237
Rp238
sI61965019992
g3
(g47
S'\x00\x00\x00\x00\x00\x00\x00\x00'
p239
tp240
Rp241
sI61965019994
g3
(g47
S'\x00\x00\x00\x00\x00\x00\x00\x00'
p242
tp243
Rp244
sI61961078619
g3
(g47
S'\x00\x00\x00\x00\x00\x00\x00\x00'
p245
tp246
Rp247
sI61965019996
g3
(g47
S'\x00\x00\x00\x00\x00\x00\x00\x00'
p248
tp249
Rp250
sg27
g3
(g47
S'\x00\x00\x00\x00\x00\x00\x00\x00'
p251
tp252
Rp253
sI61961024868
g3
(g47
S'\xd0e\xcf\xfb\xed\x98\x91?'
p254
tp255
Rp256
sI61965020009
g3
(g47
S'\x00\x00\x00\x00\x00\x00\x00\x00'
p257
tp258
Rp259
sI61965359983
g3
(g47
S'\x00\x00\x00\x00\x00\x00\x00\x00'
p260
tp261
Rp262
sI61961024881
g3
(g47
S'ee\x1a\x8b\xbc*n?'
p263
tp264
Rp265
sI61965020019
g3
(g47
S'\x00\x00\x00\x00\x00\x00\x00\x00'
p266
tp267
Rp268
sg30
g3
(g47
S'\x04]\xf6\xbc\xdf\x8e\x89?'
p269
tp270
Rp271
sI61965020021
g3
(g47
S'\x00\x00\x00\x00\x00\x00\x00\x00'
p272
tp273
Rp274
sg33
g3
(g47
S'\x00\x00\x00\x00\x00\x00\x00\x00'
p275
tp276
Rp277
sI61965359991
g3
(g47
S'\xee\x98\x11\xb2}\x1ct?'
p278
tp279
Rp280
sg36
g3
(g47
S'\x93v\x17\x98\xa7\xd0:?'
p281
tp282
Rp283
sI61961024891
g3
(g47
S'\x98\xf2_\xe9\xd19\x92?'
p284
tp285
Rp286
sI61965020029
g3
(g47
S'\x00\x00\x00\x00\x00\x00\x00\x00'
p287
tp288
Rp289
sI61961024911
g3
(g47
S'\xf6\x07o]\xab-\x81?'
p290
tp291
Rp292
sI61961024912
g3
(g47
S'9\xddPu\xf8Es?'
p293
tp294
Rp295
sI61961024927
g3
(g47
S'uC\xd5\xe1\x17M\x88?'
p296
tp297
Rp298
sI61961024929
g3
(g47
S'\xe1\xf8\xfa\x83\xb7\xae\xa5?'
p299
tp300
Rp301
sI61961024937
g3
(g47
S'rP\xc0\x87\x14\xa5\x92?'
p302
tp303
Rp304
sI61961024938
g3
(g47
S'\xd0e\xcf\xfb\xed\x98\x81?'
p305
tp306
Rp307
sI61961024943
g3
(g47
S'\x01j\xe1b\xdc\xe6\x93?'
p308
tp309
Rp310
sI61965360050
g3
(g47
S'\x00\x00\x00\x00\x00\x00\x00\x00'
p311
tp312
Rp313
sI61961024950
g3
(g47
S'\x00\x00\x00\x00\x00\x00\x00\x00'
p314
tp315
Rp316
sI61961024951
g3
(g47
S'"\x908so\x12\x8c?'
p317
tp318
Rp319
sI61964944313
g3
(g47
S'\x00\x00\x00\x00\x00\x00\x00\x00'
p320
tp321
Rp322
sI61964979130
g3
(g47
S'\x00\x00\x00\x00\x00\x00\x00\x00'
p323
tp324
Rp325
sI61961024956
g3
(g47
S'ee\x1a\x8b\xbc*~?'
p326
tp327
Rp328
sI61964979139
g3
(g47
S'\x00\x00\x00\x00\x00\x00\x00\x00'
p329
tp330
Rp331
sI61961024968
g3
(g47
S'AL\xae &W\x80?'
p332
tp333
Rp334
sI61964979150
g3
(g47
S'\x00\x00\x00\x00\x00\x00\x00\x00'
p335
tp336
Rp337
sI61964979153
g3
(g47
S'\x00\x00\x00\x00\x00\x00\x00\x00'
p338
tp339
Rp340
sI61964979154
g3
(g47
S'\x00\x00\x00\x00\x00\x00\x00\x00'
p341
tp342
Rp343
sg39
g3
(g47
S'\x0c\xccSh\r\xa0v?'
p344
tp345
Rp346
sI61964979158
g3
(g47
S'\x00\x00\x00\x00\x00\x00\x00\x00'
p347
tp348
Rp349
sI61960619991
g3
(g47
S'?\xc3z)\xff\x95\x8e?'
p350
tp351
Rp352
sI61964979163
g3
(g47
S'\x00\x00\x00\x00\x00\x00\x00\x00'
p353
tp354
Rp355
sI61964944350
g3
(g47
S'\x00\x00\x00\x00\x00\x00\x00\x00'
p356
tp357
Rp358
sg42
g3
(g47
S'\x00\x00\x00\x00\x00\x00\x00\x00'
p359
tp360
Rp361
sI413787380563
g3
(g47
S'\x00\x00\x00\x00\x00\x00\x00\x00'
p362
tp363
Rp364
ssS'avg_bt'
p365
(dp366
I61961025033
F0.0013850845455780584
sI61961025054
F0.0012670464326859409
sI61960946207
F0.00324344441921453
sI61961025059
F0.002048803858103844
sI61960946218
F0.0003402007662435355
sg12
F0.0
sI61961025073
F0.00034634768935533247
sI61964961871
F0.0
sg15
F0.0
sI61965020015
F0.0
sg18
F0.0
sI61964943979
F0.0
sI61964943982
F0.0
sI61964943984
F0.0
sI61964943986
F0.0
sI61964943996
F0.0
sI61964961925
F0.0
sI413791240838
F0.0012890559039311074
sI61964961927
F0.0
sI61964972168
F0.0
sI61964944011
F0.0
sI61964944018
F0.0
sI61961024963
F0.0032658926985910447
sI61964944027
F0.0
sI61964944035
F0.0
sI61964944038
F0.0
sI61960946349
F0.0002729360829443457
sI61964944046
F0.0
sI61961025202
F0.000597599656420148
sI14720303796
F0.0
sI61964944053
F0.0
sI61964944054
F0.0
sI61964944057
F0.0
sg21
F0.0
sI61961078559
F0.00036169117324870274
sI61964944064
F0.0
sI61964944067
F0.0
sI61961024887
F0.000764059157795587
sI61961353423
F0.00038856635330967055
sI61965359909
F0.0
sI413791240929
F0.0
sI61964944337
F0.0
sI61961078506
F0.0032408256297065657
sI61964944341
F0.0
sI61965359883
F0.0
sI61965359903
F0.0
sI61961263393
F0.0
sI61961078565
F0.000668590005956083
sI61961078566
F0.00015939620812064522
sI61961078573
F0.0011776935853889732
sI61965359920
F0.0
sI61965019959
F0.0
sI61961024824
F0.003626199923580624
sI61965019962
F0.0
sI61965359937
F0.0
sI61961078595
F0.00011701033695654958
sI61965359944
F0.0
sI61965359948
F0.0
sI61965019982
F0.0
sI61965019983
F0.0
sg24
F0.0012588368032114626
sI61965019987
F0.0
sI61961024853
F0.0010639531134926906
sI61965019992
F0.0
sI61965019994
F0.0
sI61961078619
F0.0
sI61965019996
F0.0
sg27
F0.0
sI61961024868
F0.002120409907113002
sI61965020009
F0.0
sI61965359983
F0.0
sI61961024881
F0.0002945562837630593
sI61965020019
F0.0
sg30
F0.000955912431784064
sI61965020021
F0.0
sg33
F0.0
sI61965359991
F0.0001565173791986434
sg36
F0.0
sI61961024891
F0.0006556860483503757
sI61965020029
F0.0
sI61961024911
F0.0005557088838088662
sI61961024912
F0.00032626647198286194
sI61961024927
F0.0007991490011035315
sI61961024929
F0.0040035787248586885
sI61961024937
F0.002183750505898196
sI61961024938
F0.0012941918783396086
sI61961024943
F0.002125127562213237
sI61965360050
F0.0
sI61961024950
F0.0
sI61961024951
F0.0028394594118384135
sI61964944313
F0.0
sI61964979130
F0.0
sI61961024956
F0.0002716464529079365
sI61964979139
F0.0
sI61961024968
F0.0006082283056156345
sI61964979150
F0.0
sI61964979153
F0.0
sI61964979154
F0.0
sg39
F7.588380083732284e-05
sI61964979158
F0.0
sI61960619991
F0.0011549685825891268
sI61964979163
F0.0
sI61964944350
F0.0
sg42
F0.0
sI413787380563
F0.0
ssS't_bt'
p367
(dp368
I61961025033
g3
(g47
S'\xd7n\xeb-\xd6b\xd9?'
p369
tp370
Rp371
sI61961025054
g3
(g47
S'v\x91I\xc5\xb1,\xdf?'
p372
tp373
Rp374
sI61960946207
g3
(g47
S'\xfd\x8fFZe\x02\xef?'
p375
tp376
Rp377
sI61961025059
g3
(g47
S'\x0e\xb5\x1d\\c\xd1\xe2?'
p378
tp379
Rp380
sI61960946218
g3
(g47
S'\x05 z^\xc7\xa6\xb3?'
p381
tp382
Rp383
sg12
g3
(g47
S'\x00\x00\x00\x00\x00\x00\x00\x00'
p384
tp385
Rp386
sI61961025073
g3
(g47
S'sN\t&\xc86\xb8?'
p387
tp388
Rp389
sI61964961871
g3
(g47
S'\x00\x00\x00\x00\x00\x00\x00\x00'
p390
tp391
Rp392
sg15
g3
(g47
S'\x00\x00\x00\x00\x00\x00\x00\x00'
p393
tp394
Rp395
sI61965020015
g3
(g47
S'\x00\x00\x00\x00\x00\x00\x00\x00'
p396
tp397
Rp398
sg18
g3
(g47
S'\x00\x00\x00\x00\x00\x00\x00\x00'
p399
tp400
Rp401
sI61964943979
g3
(g47
S'\x00\x00\x00\x00\x00\x00\x00\x00'
p402
tp403
Rp404
sI61964943982
g3
(g47
S'\x00\x00\x00\x00\x00\x00\x00\x00'
p405
tp406
Rp407
sI61964943984
g3
(g47
S'\x00\x00\x00\x00\x00\x00\x00\x00'
p408
tp409
Rp410
sI61964943986
g3
(g47
S'\x00\x00\x00\x00\x00\x00\x00\x00'
p411
tp412
Rp413
sI61964943996
g3
(g47
S'\x00\x00\x00\x00\x00\x00\x00\x00'
p414
tp415
Rp416
sI61964961925
g3
(g47
S'\x00\x00\x00\x00\x00\x00\x00\x00'
p417
tp418
Rp419
sI413791240838
g3
(g47
S'x\xc4\x92\xf8!x\xd8?'
p420
tp421
Rp422
sI61964961927
g3
(g47
S'\x00\x00\x00\x00\x00\x00\x00\x00'
p423
tp424
Rp425
sI61964972168
g3
(g47
S'\x00\x00\x00\x00\x00\x00\x00\x00'
p426
tp427
Rp428
sI61964944011
g3
(g47
S'\x00\x00\x00\x00\x00\x00\x00\x00'
p429
tp430
Rp431
sI61964944018
g3
(g47
S'\x00\x00\x00\x00\x00\x00\x00\x00'
p432
tp433
Rp434
sI61961024963
g3
(g47
S'\xd0\x11\xb5\xe1\x88\x83\xf0?'
p435
tp436
Rp437
sI61964944027
g3
(g47
S'\x00\x00\x00\x00\x00\x00\x00\x00'
p438
tp439
Rp440
sI61964944035
g3
(g47
S'\x00\x00\x00\x00\x00\x00\x00\x00'
p441
tp442
Rp443
sI61964944038
g3
(g47
S'\x00\x00\x00\x00\x00\x00\x00\x00'
p444
tp445
Rp446
sI61960946349
g3
(g47
S'\xebT\x98\xa0[\x84\xaa?'
p447
tp448
Rp449
sI61964944046
g3
(g47
S'\x00\x00\x00\x00\x00\x00\x00\x00'
p450
tp451
Rp452
sI61961025202
g3
(g47
S'a\x96\x16\x85:\x8b\xd4?'
p453
tp454
Rp455
sI14720303796
g3
(g47
S'\x00\x00\x00\x00\x00\x00\x00\x00'
p456
tp457
Rp458
sI61964944053
g3
(g47
S'\x00\x00\x00\x00\x00\x00\x00\x00'
p459
tp460
Rp461
sI61964944054
g3
(g47
S'\x00\x00\x00\x00\x00\x00\x00\x00'
p462
tp463
Rp464
sI61964944057
g3
(g47
S'\x00\x00\x00\x00\x00\x00\x00\x00'
p465
tp466
Rp467
sg21
g3
(g47
S'\x00\x00\x00\x00\x00\x00\x00\x00'
p468
tp469
Rp470
sI61961078559
g3
(g47
S'ri^\xc1\xd96\xd4?'
p471
tp472
Rp473
sI61964944064
g3
(g47
S'\x00\x00\x00\x00\x00\x00\x00\x00'
p474
tp475
Rp476
sI61964944067
g3
(g47
S'\x00\x00\x00\x00\x00\x00\x00\x00'
p477
tp478
Rp479
sI61961024887
g3
(g47
S'\xf9\xb6\xc2\xc3\xdd9\xdd?'
p480
tp481
Rp482
sI61961353423
g3
(g47
S'\xd5V\xac\xd4\x12\r\xc0?'
p483
tp484
Rp485
sI61965359909
g3
(g47
S'\x00\x00\x00\x00\x00\x00\x00\x00'
p486
tp487
Rp488
sI413791240929
g3
(g47
S'\x00\x00\x00\x00\x00\x00\x00\x00'
p489
tp490
Rp491
sI61964944337
g3
(g47
S'\x00\x00\x00\x00\x00\x00\x00\x00'
p492
tp493
Rp494
sI61961078506
g3
(g47
S'\x92W\x06\x1f\xb67\xf4?'
p495
tp496
Rp497
sI61964944341
g3
(g47
S'\x00\x00\x00\x00\x00\x00\x00\x00'
p498
tp499
Rp500
sI61965359883
g3
(g47
S'\x00\x00\x00\x00\x00\x00\x00\x00'
p501
tp502
Rp503
sI61965359903
g3
(g47
S'\x00\x00\x00\x00\x00\x00\x00\x00'
p504
tp505
Rp506
sI61961263393
g3
(g47
S'\x00\x00\x00\x00\x00\x00\x00\x00'
p507
tp508
Rp509
sI61961078565
g3
(g47
S'\xca\x89"1m\x15\xc1?'
p510
tp511
Rp512
sI61961078566
g3
(g47
S'!\x0e\xa2R\xb1\xe7\xa1?'
p513
tp514
Rp515
sI61961078573
g3
(g47
S'\xc2\x9e\x9b\xaf\xc6\x00\xd3?'
p516
tp517
Rp518
sI61965359920
g3
(g47
S'\x00\x00\x00\x00\x00\x00\x00\x00'
p519
tp520
Rp521
sI61965019959
g3
(g47
S'\x00\x00\x00\x00\x00\x00\x00\x00'
p522
tp523
Rp524
sI61961024824
g3
(g47
S'\xf8m\xcf\xa6e|\xf6?'
p525
tp526
Rp527
sI61965019962
g3
(g47
S'\x00\x00\x00\x00\x00\x00\x00\x00'
p528
tp529
Rp530
sI61965359937
g3
(g47
S'\x00\x00\x00\x00\x00\x00\x00\x00'
p531
tp532
Rp533
sI61961078595
g3
(g47
S'\x1a\xf0\x8a\xea\x919\xc1?'
p534
tp535
Rp536
sI61965359944
g3
(g47
S'\x00\x00\x00\x00\x00\x00\x00\x00'
p537
tp538
Rp539
sI61965359948
g3
(g47
S'\x00\x00\x00\x00\x00\x00\x00\x00'
p540
tp541
Rp542
sI61965019982
g3
(g47
S'\x00\x00\x00\x00\x00\x00\x00\x00'
p543
tp544
Rp545
sI61965019983
g3
(g47
S'\x00\x00\x00\x00\x00\x00\x00\x00'
p546
tp547
Rp548
sg24
g3
(g47
S'\xb0e^\xaafq\xc3?'
p549
tp550
Rp551
sI61965019987
g3
(g47
S'\x00\x00\x00\x00\x00\x00\x00\x00'
p552
tp553
Rp554
sI61961024853
g3
(g47
S'\x03\xa3\xe0\xf3\xfe\x8a\xc7?'
p555
tp556
Rp557
sI61965019992
g3
(g47
S'\x00\x00\x00\x00\x00\x00\x00\x00'
p558
tp559
Rp560
sI61965019994
g3
(g47
S'\x00\x00\x00\x00\x00\x00\x00\x00'
p561
tp562
Rp563
sI61961078619
g3
(g47
S'\x00\x00\x00\x00\x00\x00\x00\x00'
p564
tp565
Rp566
sI61965019996
g3
(g47
S'\x00\x00\x00\x00\x00\x00\x00\x00'
p567
tp568
Rp569
sg27
g3
(g47
S'\x00\x00\x00\x00\x00\x00\x00\x00'
p570
tp571
Rp572
sI61961024868
g3
(g47
S'\xc0\x07\x04\x14=$\xdf?'
p573
tp574
Rp575
sI61965020009
g3
(g47
S'\x00\x00\x00\x00\x00\x00\x00\x00'
p576
tp577
Rp578
sI61965359983
g3
(g47
S'\x00\x00\x00\x00\x00\x00\x00\x00'
p579
tp580
Rp581
sI61961024881
g3
(g47
S'\xf0\xacJ\x8e\t\xaa\xcb?'
p582
tp583
Rp584
sI61965020019
g3
(g47
S'\x00\x00\x00\x00\x00\x00\x00\x00'
p585
tp586
Rp587
sg30
g3
(g47
S'\x84\xa5\x9fT\xa31\xc2?'
p588
tp589
Rp590
sI61965020021
g3
(g47
S'\x00\x00\x00\x00\x00\x00\x00\x00'
p591
tp592
Rp593
sg33
g3
(g47
S'\x00\x00\x00\x00\x00\x00\x00\x00'
p594
tp595
Rp596
sI61965359991
g3
(g47
S'6\x8b\x05r\xf6\x9a\xc3?'
p597
tp598
Rp599
sg36
g3
(g47
S'\x00\x00\x00\x00\x00\x00\x00\x00'
p600
tp601
Rp602
sI61961024891
g3
(g47
S'&t\xbdQ\xf8\x08\xd1?'
p603
tp604
Rp605
sI61965020029
g3
(g47
S'\x00\x00\x00\x00\x00\x00\x00\x00'
p606
tp607
Rp608
sI61961024911
g3
(g47
S'\x17\xa5LX2u\xd3?'
p609
tp610
Rp611
sI61961024912
g3
(g47
S'\x96;\xd6c`\xe0\xbb?'
p612
tp613
Rp614
sI61961024927
g3
(g47
S'\xa7\xa7\xfblA\xee\xc3?'
p615
tp616
Rp617
sI61961024929
g3
(g47
S'\xc1\x11\xd5\xed\x8e\x96\x05@'
p618
tp619
Rp620
sI61961024937
g3
(g47
S'\xf3\xf3\xff\xe1\x06\xe0\xe0?'
p621
tp622
Rp623
sI61961024938
g3
(g47
S'\xf6\xd5\xcb\xb2\x00\x83\xe1?'
p624
tp625
Rp626
sI61961024943
g3
(g47
S'\x99\xa8\x1c\xbfWX\xec?'
p627
tp628
Rp629
sI61965360050
g3
(g47
S'\x00\x00\x00\x00\x00\x00\x00\x00'
p630
tp631
Rp632
sI61961024950
g3
(g47
S'\x00\x00\x00\x00\x00\x00\x00\x00'
p633
tp634
Rp635
sI61961024951
g3
(g47
S'\xec\xb6sK]q\xf5?'
p636
tp637
Rp638
sI61964944313
g3
(g47
S'\x00\x00\x00\x00\x00\x00\x00\x00'
p639
tp640
Rp641
sI61964979130
g3
(g47
S'\x00\x00\x00\x00\x00\x00\x00\x00'
p642
tp643
Rp644
sI61961024956
g3
(g47
S'\xd7x\x1d\xcc^\x8b\xb1?'
p645
tp646
Rp647
sI61964979139
g3
(g47
S'\x00\x00\x00\x00\x00\x00\x00\x00'
p648
tp649
Rp650
sI61961024968
g3
(g47
S':\x9c\xf9Fh\xa5\xc9?'
p651
tp652
Rp653
sI61964979150
g3
(g47
S'\x00\x00\x00\x00\x00\x00\x00\x00'
p654
tp655
Rp656
sI61964979153
g3
(g47
S'\x00\x00\x00\x00\x00\x00\x00\x00'
p657
tp658
Rp659
sI61964979154
g3
(g47
S'\x00\x00\x00\x00\x00\x00\x00\x00'
p660
tp661
Rp662
sg39
g3
(g47
S'\xfc\xb4\xec\x08\xbc\xc6\xd0?'
p663
tp664
Rp665
sI61964979158
g3
(g47
S'\x00\x00\x00\x00\x00\x00\x00\x00'
p666
tp667
Rp668
sI61960619991
g3
(g47
S'\xa3\x89\xa2k\xfbK\xd4?'
p669
tp670
Rp671
sI61964979163
g3
(g47
S'\x00\x00\x00\x00\x00\x00\x00\x00'
p672
tp673
Rp674
sI61964944350
g3
(g47
S'\x00\x00\x00\x00\x00\x00\x00\x00'
p675
tp676
Rp677
sg42
g3
(g47
S'\x00\x00\x00\x00\x00\x00\x00\x00'
p678
tp679
Rp680
sI413787380563
g3
(g47
S'\x00\x00\x00\x00\x00\x00\x00\x00'
p681
tp682
Rp683
ssS'avg_deg'
p684
(dp685
I61961025033
F0.01738952536824877
sI61961025054
F0.011661211129296235
sI61960946207
F0.02291325695581015
sI61961025059
F0.024140752864157115
sI61960946218
F0.009615384615384614
sg12
F0.0
sI61961025073
F0.0030687397708674302
sI61964961871
F0.0
sg15
F0.0004091653027823241
sI61965020015
F0.0
sg18
F0.0
sI61964943979
F0.0
sI61964943982
F0.0
sI61964943984
F0.0
sI61964943986
F0.0
sI61964943996
F0.0
sI61964961925
F0.0
sI413791240838
F0.009615384615384612
sI61964961927
F0.0
sI61964972168
F0.0
sI61964944011
F0.0
sI61964944018
F0.0
sI61961024963
F0.01493453355155483
sI61964944027
F0.0
sI61964944035
F0.0
sI61964944038
F0.0
sI61960946349
F0.0026595744680851063
sI61964944046
F0.0
sI61961025202
F0.011661211129296236
sI14720303796
F0.0
sI61964944053
F0.0
sI61964944054
F0.0
sI61964944057
F0.0
sg21
F0.0
sI61961078559
F0.0038870703764320785
sI61964944064
F0.0
sI61964944067
F0.0
sI61961024887
F0.016366612111292964
sI61961353423
F0.006342062193126023
sI61965359909
F0.0
sI413791240929
F0.00020458265139116204
sI61964944337
F0.0
sI61961078506
F0.041734860883797055
sI61964944341
F0.0
sI61965359883
F0.0
sI61965359903
F0.0
sI61961263393
F0.0
sI61961078565
F0.014116202945990178
sI61961078566
F0.006342062193126024
sI61961078573
F0.01841243862520458
sI61965359920
F0.0
sI61965019959
F0.0
sI61961024824
F0.021481178396072016
sI61965019962
F0.0
sI61965359937
F0.0
sI61961078595
F0.003682487725040916
sI61965359944
F0.0
sI61965359948
F0.0
sI61965019982
F0.0
sI61965019983
F0.0
sg24
F0.009410801963993453
sI61965019987
F0.0
sI61961024853
F0.00797872340425532
sI61965019992
F0.0
sI61965019994
F0.0
sI61961078619
F0.0
sI61965019996
F0.0
sg27
F0.0
sI61961024868
F0.017594108019639936
sI61965020009
F0.0
sI61965359983
F0.0
sI61961024881
F0.003682487725040917
sI61965020019
F0.0
sg30
F0.012479541734860888
sI61965020021
F0.0
sg33
F0.0
sI61965359991
F0.004909983633387889
sg36
F0.0004091653027823241
sI61961024891
F0.017798690671031094
sI61965020029
F0.0
sI61961024911
F0.008387888707037645
sI61961024912
F0.004705400981996727
sI61961024927
F0.011865793780687398
sI61961024929
F0.04787234042553191
sI61961024937
F0.020662847790507366
sI61961024938
F0.008592471358428805
sI61961024943
F0.019435351882160393
sI61965360050
F0.0
sI61961024950
F0.0
sI61961024951
F0.013911620294599018
sI61964944313
F0.0
sI61964979130
F0.0
sI61961024956
F0.007364975450081836
sI61964979139
F0.0
sI61961024968
F0.00797872340425532
sI61964979150
F0.0
sI61964979153
F0.0
sI61964979154
F0.0
sg39
F0.019026186579378063
sI61964979158
F0.0
sI61960619991
F0.01493453355155483
sI61964979163
F0.0
sI61964944350
F0.0
sg42
F0.0
sI413787380563
F0.0
ssS't_cl'
p686
(dp687
I61961025033
g3
(g47
S'8\x15\x1a\x97\x02\xa2\xae?'
p688
tp689
Rp690
sI61961025054
g3
(g47
S'\x9a+\xc89%\xe8\xaf?'
p691
tp692
Rp693
sI61960946207
g3
(g47
S'L-\xf3\xecF\xc9\xb3?'
p694
tp695
Rp696
sI61961025059
g3
(g47
S'\n\x9a\x00l\xbaT\xb4?'
p697
tp698
Rp699
sI61960946218
g3
(g47
S'\x97\x08T%\xe2o\xab?'
p700
tp701
Rp702
sg12
g3
(g47
S'\x00\x00\x00\x00\x00\x00\x00\x00'
p703
tp704
Rp705
sI61961025073
g3
(g47
S'\xa8n>H\x98\xf8\xa3?'
p706
tp707
Rp708
sI61964961871
g3
(g47
S'\x00\x00\x00\x00\x00\x00\x00\x00'
p709
tp710
Rp711
sg15
g3
(g47
S'\xe1\xcc-\xe7\xf8\xab\x92?'
p712
tp713
Rp714
sI61965020015
g3
(g47
S'\x00\x00\x00\x00\x00\x00\x00\x00'
p715
tp716
Rp717
sg18
g3
(g47
S'\x00\x00\x00\x00\x00\x00\x00\x00'
p718
tp719
Rp720
sI61964943979
g3
(g47
S'\x00\x00\x00\x00\x00\x00\x00\x00'
p721
tp722
Rp723
sI61964943982
g3
(g47
S'\x00\x00\x00\x00\x00\x00\x00\x00'
p724
tp725
Rp726
sI61964943984
g3
(g47
S'\x00\x00\x00\x00\x00\x00\x00\x00'
p727
tp728
Rp729
sI61964943986
g3
(g47
S'\x00\x00\x00\x00\x00\x00\x00\x00'
p730
tp731
Rp732
sI61964943996
g3
(g47
S'\x00\x00\x00\x00\x00\x00\x00\x00'
p733
tp734
Rp735
sI61964961925
g3
(g47
S'\x00\x00\x00\x00\x00\x00\x00\x00'
p736
tp737
Rp738
sI413791240838
g3
(g47
S'\x171\xdd\x82T;\xaa?'
p739
tp740
Rp741
sI61964961927
g3
(g47
S'\x00\x00\x00\x00\x00\x00\x00\x00'
p742
tp743
Rp744
sI61964972168
g3
(g47
S'\x00\x00\x00\x00\x00\x00\x00\x00'
p745
tp746
Rp747
sI61964944011
g3
(g47
S'\x00\x00\x00\x00\x00\x00\x00\x00'
p748
tp749
Rp750
sI61964944018
g3
(g47
S'\x00\x00\x00\x00\x00\x00\x00\x00'
p751
tp752
Rp753
sI61961024963
g3
(g47
S'\x1cS\xb1\xeeR6\xb1?'
p754
tp755
Rp756
sI61964944027
g3
(g47
S'\x00\x00\x00\x00\x00\x00\x00\x00'
p757
tp758
Rp759
sI61964944035
g3
(g47
S'\x00\x00\x00\x00\x00\x00\x00\x00'
p760
tp761
Rp762
sI61964944038
g3
(g47
S'\x00\x00\x00\x00\x00\x00\x00\x00'
p763
tp764
Rp765
sI61960946349
g3
(g47
S'\xa4A\xffF\xc7\xb5\xa4?'
p766
tp767
Rp768
sI61964944046
g3
(g47
S'\x00\x00\x00\x00\x00\x00\x00\x00'
p769
tp770
Rp771
sI61961025202
g3
(g47
S'R\x88\xad\x9b_\xff\xa8?'
p772
tp773
Rp774
sI14720303796
g3
(g47
S'\x00\x00\x00\x00\x00\x00\x00\x00'
p775
tp776
Rp777
sI61964944053
g3
(g47
S'\x00\x00\x00\x00\x00\x00\x00\x00'
p778
tp779
Rp780
sI61964944054
g3
(g47
S'\x00\x00\x00\x00\x00\x00\x00\x00'
p781
tp782
Rp783
sI61964944057
g3
(g47
S'\x00\x00\x00\x00\x00\x00\x00\x00'
p784
tp785
Rp786
sg21
g3
(g47
S'\x00\x00\x00\x00\x00\x00\x00\x00'
p787
tp788
Rp789
sI61961078559
g3
(g47
S'\x8c\x17G\x85\xd5+\xa1?'
p790
tp791
Rp792
sI61964944064
g3
(g47
S'\x00\x00\x00\x00\x00\x00\x00\x00'
p793
tp794
Rp795
sI61964944067
g3
(g47
S'\x00\x00\x00\x00\x00\x00\x00\x00'
p796
tp797
Rp798
sI61961024887
g3
(g47
S'm\xcc\x9c\x07](\xb2?'
p799
tp800
Rp801
sI61961353423
g3
(g47
S'\xf2\x9d~\xf0]M\xa2?'
p802
tp803
Rp804
sI61965359909
g3
(g47
S'\x00\x00\x00\x00\x00\x00\x00\x00'
p805
tp806
Rp807
sI413791240929
g3
(g47
S'\xd8\x0b\xaf\xb8!\xb7\x81?'
p808
tp809
Rp810
sI61964944337
g3
(g47
S'\x00\x00\x00\x00\x00\x00\x00\x00'
p811
tp812
Rp813
sI61961078506
g3
(g47
S'\x0e\x01O\x13=\x12\xb7?'
p814
tp815
Rp816
sI61964944341
g3
(g47
S'\x00\x00\x00\x00\x00\x00\x00\x00'
p817
tp818
Rp819
sI61965359883
g3
(g47
S'\x00\x00\x00\x00\x00\x00\x00\x00'
p820
tp821
Rp822
sI61965359903
g3
(g47
S'\x00\x00\x00\x00\x00\x00\x00\x00'
p823
tp824
Rp825
sI61961263393
g3
(g47
S'\x00\x00\x00\x00\x00\x00\x00\x00'
p826
tp827
Rp828
sI61961078565
g3
(g47
S'\xe6!\x98\xc4T>\xae?'
p829
tp830
Rp831
sI61961078566
g3
(g47
S'\xe6\x81d\xbec\x0c\xa1?'
p832
tp833
Rp834
sI61961078573
g3
(g47
S'\xac\xa2\x89\xa2\xa0\xea\xb0?'
p835
tp836
Rp837
sI61965359920
g3
(g47
S'\x00\x00\x00\x00\x00\x00\x00\x00'
p838
tp839
Rp840
sI61965019959
g3
(g47
S'\x00\x00\x00\x00\x00\x00\x00\x00'
p841
tp842
Rp843
sI61961024824
g3
(g47
S'\xf6F\xf2\xd5\xdb\xb0\xb2?'
p844
tp845
Rp846
sI61965019962
g3
(g47
S'\x00\x00\x00\x00\x00\x00\x00\x00'
p847
tp848
Rp849
sI61965359937
g3
(g47
S'\x00\x00\x00\x00\x00\x00\x00\x00'
p850
tp851
Rp852
sI61961078595
g3
(g47
S'\x15\xe3"ygn\xa2?'
p853
tp854
Rp855
sI61965359944
g3
(g47
S'\x00\x00\x00\x00\x00\x00\x00\x00'
p856
tp857
Rp858
sI61965359948
g3
(g47
S'\x00\x00\x00\x00\x00\x00\x00\x00'
p859
tp860
Rp861
sI61965019982
g3
(g47
S'\x00\x00\x00\x00\x00\x00\x00\x00'
p862
tp863
Rp864
sI61965019983
g3
(g47
S'\x00\x00\x00\x00\x00\x00\x00\x00'
p865
tp866
Rp867
sg24
g3
(g47
S'S\xf3\x90\x84\xcbt\xae?'
p868
tp869
Rp870
sI61965019987
g3
(g47
S'\x00\x00\x00\x00\x00\x00\x00\x00'
p871
tp872
Rp873
sI61961024853
g3
(g47
S'\x15fP\xbe\x03\x10\xad?'
p874
tp875
Rp876
sI61965019992
g3
(g47
S'\x00\x00\x00\x00\x00\x00\x00\x00'
p877
tp878
Rp879
sI61965019994
g3
(g47
S'\x00\x00\x00\x00\x00\x00\x00\x00'
p880
tp881
Rp882
sI61961078619
g3
(g47
S'\x00\x00\x00\x00\x00\x00\x00\x00'
p883
tp884
Rp885
sI61965019996
g3
(g47
S'\x00\x00\x00\x00\x00\x00\x00\x00'
p886
tp887
Rp888
sg27
g3
(g47
S'\x00\x00\x00\x00\x00\x00\x00\x00'
p889
tp890
Rp891
sI61961024868
g3
(g47
S'\xc4\x82\xbb\xb5:I\xb1?'
p892
tp893
Rp894
sI61965020009
g3
(g47
S'\x00\x00\x00\x00\x00\x00\x00\x00'
p895
tp896
Rp897
sI61965359983
g3
(g47
S'\x00\x00\x00\x00\x00\x00\x00\x00'
p898
tp899
Rp900
sI61961024881
g3
(g47
S'\xf6=\xde83\xeb\xa0?'
p901
tp902
Rp903
sI61965020019
g3
(g47
S'\x00\x00\x00\x00\x00\x00\x00\x00'
p904
tp905
Rp906
sg30
g3
(g47
S'M5\x80\x8f\x1d\xc2\xa8?'
p907
tp908
Rp909
sI61965020021
g3
(g47
S'\x00\x00\x00\x00\x00\x00\x00\x00'
p910
tp911
Rp912
sg33
g3
(g47
S'\x00\x00\x00\x00\x00\x00\x00\x00'
p913
tp914
Rp915
sI61965359991
g3
(g47
S'\xee\xa0\x13i\xc2\xbe\xa0?'
p916
tp917
Rp918
sg36
g3
(g47
S'V\xf696\xb2l\x8d?'
p919
tp920
Rp921
sI61961024891
g3
(g47
S'T\xca<\xbb#\x8e\xb2?'
p922
tp923
Rp924
sI61965020029
g3
(g47
S'\x00\x00\x00\x00\x00\x00\x00\x00'
p925
tp926
Rp927
sI61961024911
g3
(g47
S'B3\xd3\xa8\xb9X\xa6?'
p928
tp929
Rp930
sI61961024912
g3
(g47
S'\x14\xf3\x98\xaf\xe9U\xab?'
p931
tp932
Rp933
sI61961024927
g3
(g47
S'|d_H\xfc\x97\xaf?'
p934
tp935
Rp936
sI61961024929
g3
(g47
S'\tH\x1a\xa3{z\xb8?'
p937
tp938
Rp939
sI61961024937
g3
(g47
S'\xfbt\xea\xca\x1b;\xb2?'
p940
tp941
Rp942
sI61961024938
g3
(g47
S'\xb9\xcd\x17\x93\xcbJ\xa9?'
p943
tp944
Rp945
sI61961024943
g3
(g47
S'\x8f\xfc!\xb83\xa0\xb1?'
p946
tp947
Rp948
sI61965360050
g3
(g47
S'\x00\x00\x00\x00\x00\x00\x00\x00'
p949
tp950
Rp951
sI61961024950
g3
(g47
S'\x00\x00\x00\x00\x00\x00\x00\x00'
p952
tp953
Rp954
sI61961024951
g3
(g47
S'I7\nr\x99\x9e\xac?'
p955
tp956
Rp957
sI61964944313
g3
(g47
S'\x00\x00\x00\x00\x00\x00\x00\x00'
p958
tp959
Rp960
sI61964979130
g3
(g47
S'\x00\x00\x00\x00\x00\x00\x00\x00'
p961
tp962
Rp963
sI61961024956
g3
(g47
S'\xabu\xcbav\x85\xaa?'
p964
tp965
Rp966
sI61964979139
g3
(g47
S'\x00\x00\x00\x00\x00\x00\x00\x00'
p967
tp968
Rp969
sI61961024968
g3
(g47
S'\x11\x89\xa8\xd5@I\xac?'
p970
tp971
Rp972
sI61964979150
g3
(g47
S'\x00\x00\x00\x00\x00\x00\x00\x00'
p973
tp974
Rp975
sI61964979153
g3
(g47
S'\x00\x00\x00\x00\x00\x00\x00\x00'
p976
tp977
Rp978
sI61964979154
g3
(g47
S'\x00\x00\x00\x00\x00\x00\x00\x00'
p979
tp980
Rp981
sg39
g3
(g47
S'\x12\xfb\x80\xed\\\x12\xa1?'
p982
tp983
Rp984
sI61964979158
g3
(g47
S'\x00\x00\x00\x00\x00\x00\x00\x00'
p985
tp986
Rp987
sI61960619991
g3
(g47
S'e\x9e_D\xec\xce\xaf?'
p988
tp989
Rp990
sI61964979163
g3
(g47
S'\x00\x00\x00\x00\x00\x00\x00\x00'
p991
tp992
Rp993
sI61964944350
g3
(g47
S'\x00\x00\x00\x00\x00\x00\x00\x00'
p994
tp995
Rp996
sg42
g3
(g47
S'\x00\x00\x00\x00\x00\x00\x00\x00'
p997
tp998
Rp999
sI413787380563
g3
(g47
S'\x00\x00\x00\x00\x00\x00\x00\x00'
p1000
tp1001
Rp1002
ssS'avg_cl'
p1003
(dp1004
I61961025033
F0.03559881642196946
sI61961025054
F0.036179333026940624
sI61960946207
F0.04617465906528166
sI61961025059
F0.0490800517280774
sI61960946218
F0.028941066496368698
sg12
F0.0
sI61961025073
F0.014607535278935515
sI61964961871
F0.0
sg15
F0.002302116868401648
sI61965020015
F0.0
sg18
F0.0
sI61964943979
F0.0
sI61964943982
F0.0
sI61964943984
F0.0
sI61964943986
F0.0
sI61964943996
F0.0
sI61964961925
F0.0
sI413791240838
F0.02721279146561016
sI61964961927
F0.0
sI61964972168
F0.0
sI61964944011
F0.0
sI61964944018
F0.0
sI61961024963
F0.04036277710413368
sI61964944027
F0.0
sI61964944035
F0.0
sI61964944038
F0.0
sI61960946349
F0.01628189194570372
sI61964944046
F0.0
sI61961025202
F0.02085260571400085
sI14720303796
F0.0
sI61964944053
F0.0
sI61964944054
F0.0
sI61964944057
F0.0
sg21
F0.0
sI61961078559
F0.01147688452856458
sI61964944064
F0.0
sI61964944067
F0.0
sI61961024887
F0.039302125190105244
sI61961353423
F0.014437130227265102
sI61965359909
F0.0
sI413791240929
F0.0009206219312602291
sI61964944337
F0.0
sI61961078506
F0.05556291269686008
sI61964944341
F0.0
sI61965359883
F0.0
sI61965359903
F0.0
sI61961263393
F0.0
sI61961078565
F0.030610444821368342
sI61961078566
F0.0142881699009236
sI61961078573
F0.035274068178354386
sI61965359920
F0.0
sI61965019959
F0.0
sI61961024824
F0.04040591659061755
sI61965019962
F0.0
sI61965359937
F0.0
sI61961078595
F0.016446673308430113
sI61965359944
F0.0
sI61965359948
F0.0
sI61965019982
F0.0
sI61965019983
F0.0
sg24
F0.02773538126266412
sI61965019987
F0.0
sI61961024853
F0.029520635654594764
sI61965019992
F0.0
sI61965019994
F0.0
sI61961078619
F0.0
sI61965019996
F0.0
sg27
F0.0
sI61961024868
F0.03831724563236984
sI61965020009
F0.0
sI61965359983
F0.0
sI61961024881
F0.008876750994966667
sI61965020019
F0.0
sg30
F0.02560956948084863
sI61965020021
F0.0
sg33
F0.0
sI61965359991
F0.00939091602962514
sg36
F0.0015280750346216795
sI61961024891
F0.04412409029364625
sI61965020029
F0.0
sI61961024911
F0.023100714318004173
sI61961024912
F0.023324111850553043
sI61961024927
F0.03644494998633892
sI61961024929
F0.059751501260086826
sI61961024937
F0.03545671385488699
sI61961024938
F0.028406930806440647
sI61961024943
F0.0394548745809454
sI61965360050
F0.0
sI61961024950
F0.0
sI61961024951
F0.027620531307838033
sI61964944313
F0.0
sI61964979130
F0.0
sI61961024956
F0.025323430691219798
sI61964979139
F0.0
sI61961024968
F0.028073614336262882
sI61964979150
F0.0
sI61964979153
F0.0
sI61964979154
F0.0
sg39
F0.009435043748861338
sI61964979158
F0.0
sI61960619991
F0.03608928342153214
sI61964979163
F0.0
sI61964944350
F0.0
sg42
F0.0
sI413787380563
F0.0
ssS'agg_bt'
p1005
(dp1006
I61961025033
F0.00324998043459214
sI61961025054
F0.002534165035359088
sI61960946207
F0.001194466940826164
sI61961025059
F0.0015638003292036153
sI61960946218
F0.0012403223049401212
sg12
F0.0
sI61961025073
F0.0011551106211300385
sI61964961871
F0.0
sg15
F0.0
sI61965020015
F0.0
sg18
F0.0
sI61964943979
F0.0
sI61964943982
F0.0
sI61964943984
F0.0
sI61964943986
F0.0
sI61964943996
F0.0
sI61964961925
F0.0
sI413791240838
F0.0010754464346501966
sI61964961927
F0.0
sI61964972168
F0.0
sI61964944011
F0.0
sI61964944018
F0.0
sI61961024963
F0.0017361038575564344
sI61964944027
F0.0
sI61964944035
F0.0
sI61964944038
F0.0
sI61960946349
F0.0002625745344191946
sI61964944046
F0.0
sI61961025202
F0.002215564380932406
sI14720303796
F0.0
sI61964944053
F0.0
sI61964944054
F0.0
sI61964944057
F0.0
sg21
F0.0
sI61961078559
F0.0031510311943471012
sI61964944064
F0.0
sI61964944067
F0.0
sI61961024887
F0.002123826302317714
sI61961353423
F0.0006783804113901201
sI61965359909
F0.0
sI413791240929
F0.0
sI61964944337
F0.0
sI61961078506
F0.003675421926176295
sI61964944341
F0.0
sI61965359883
F0.0
sI61965359903
F0.0
sI61961263393
F0.0
sI61961078565
F0.0029709655309966983
sI61961078566
F0.0001304049240942445
sI61961078573
F0.006571237058268499
sI61965359920
F0.0
sI61965019959
F0.0
sI61961024824
F0.004376941204255061
sI61965019962
F0.0
sI61965359937
F0.0
sI61961078595
F0.00020282104626764822
sI61965359944
F0.0
sI61965359948
F0.0
sI61965019982
F0.0
sI61965019983
F0.0
sg24
F0.001297350788032831
sI61965019987
F0.0
sI61961024853
F0.0009238847410990802
sI61965019992
F0.0
sI61965019994
F0.0
sI61961078619
F0.0
sI61965019996
F0.0
sg27
F0.0
sI61961024868
F0.0044219839802077275
sI61965020009
F0.0
sI61965359983
F0.0
sI61961024881
F0.00428549543560746
sI61965020019
F0.0
sg30
F0.001762188853962639
sI61965020021
F0.0
sg33
F0.0
sI61965359991
F0.0011644478457398545
sg36
F4.667662434652726e-05
sI61961024891
F0.0034021352682667098
sI61965020029
F0.0
sI61961024911
F0.003169999364017695
sI61961024912
F0.0016538842971815337
sI61961024927
F0.0018855120225350528
sI61961024929
F0.030513195723810702
sI61961024937
F0.009770682907742847
sI61961024938
F0.0003717029331098317
sI61961024943
F0.0014241167319099346
sI61965360050
F0.0
sI61961024950
F0.0
sI61961024951
F0.004423392727424719
sI61964944313
F0.0
sI61964979130
F0.0
sI61961024956
F0.0003423138429846838
sI61964979139
F0.0
sI61961024968
F0.0011159049853971437
sI61964979150
F0.0
sI61964979153
F0.0
sI61964979154
F0.0
sg39
F0.0004227454563526259
sI61964979158
F0.0
sI61960619991
F0.0008246649119158062
sI61964979163
F0.0
sI61964944350
F0.0
sg42
F0.0
sI413787380563
F0.0
ssS'agg_deg'
p1007
(dp1008
I61961025033
F0.1826923076923077
sI61961025054
F0.13461538461538464
sI61960946207
F0.15384615384615385
sI61961025059
F0.17307692307692307
sI61960946218
F0.16346153846153846
sg12
F0.0
sI61961025073
F0.08653846153846154
sI61964961871
F0.0
sg15
F0.019230769230769232
sI61965020015
F0.0
sg18
F0.0
sI61964943979
F0.0
sI61964943982
F0.0
sI61964943984
F0.0
sI61964943986
F0.0
sI61964943996
F0.0
sI61964961925
F0.0
sI413791240838
F0.15384615384615385
sI61964961927
F0.0
sI61964972168
F0.0
sI61964944011
F0.0
sI61964944018
F0.0
sI61961024963
F0.17307692307692307
sI61964944027
F0.0
sI61964944035
F0.0
sI61964944038
F0.0
sI61960946349
F0.057692307692307696
sI61964944046
F0.0
sI61961025202
F0.10576923076923078
sI14720303796
F0.0
sI61964944053
F0.0
sI61964944054
F0.0
sI61964944057
F0.0
sg21
F0.0
sI61961078559
F0.04807692307692308
sI61964944064
F0.0
sI61964944067
F0.0
sI61961024887
F0.15384615384615385
sI61961353423
F0.10576923076923078
sI61965359909
F0.0
sI413791240929
F0.009615384615384616
sI61964944337
F0.0
sI61961078506
F0.21153846153846156
sI61964944341
F0.0
sI61965359883
F0.0
sI61965359903
F0.0
sI61961263393
F0.0
sI61961078565
F0.21153846153846156
sI61961078566
F0.06730769230769232
sI61961078573
F0.25961538461538464
sI61965359920
F0.0
sI61965019959
F0.0
sI61961024824
F0.22115384615384617
sI61965019962
F0.0
sI61965359937
F0.0
sI61961078595
F0.038461538461538464
sI61965359944
F0.0
sI61965359948
F0.0
sI61965019982
F0.0
sI61965019983
F0.0
sg24
F0.13461538461538464
sI61965019987
F0.0
sI61961024853
F0.13461538461538464
sI61965019992
F0.0
sI61965019994
F0.0
sI61961078619
F0.0
sI61965019996
F0.0
sg27
F0.0
sI61961024868
F0.21153846153846156
sI61965020009
F0.0
sI61965359983
F0.0
sI61961024881
F0.057692307692307696
sI61965020019
F0.0
sg30
F0.16346153846153846
sI61965020021
F0.0
sg33
F0.0
sI61965359991
F0.07692307692307693
sg36
F0.019230769230769232
sI61961024891
F0.13461538461538464
sI61965020029
F0.0
sI61961024911
F0.1826923076923077
sI61961024912
F0.10576923076923078
sI61961024927
F0.19230769230769232
sI61961024929
F0.33653846153846156
sI61961024937
F0.2403846153846154
sI61961024938
F0.125
sI61961024943
F0.15384615384615385
sI61965360050
F0.0
sI61961024950
F0.0
sI61961024951
F0.125
sI61964944313
F0.0
sI61964979130
F0.0
sI61961024956
F0.10576923076923078
sI61964979139
F0.0
sI61961024968
F0.09615384615384616
sI61964979150
F0.0
sI61964979153
F0.0
sI61964979154
F0.0
sg39
F0.07692307692307693
sI61964979158
F0.0
sI61960619991
F0.11538461538461539
sI61964979163
F0.0
sI61964944350
F0.0
sg42
F0.0
sI413787380563
F0.0
ss.