(dp0
S'agg_cl'
p1
(dp2
I61961025033
F0.6203473945409429
sI61961025054
F0.5623031938821412
sI61960946207
F0.5401901469317201
sI61961025059
F0.6453278265358803
sI61960946218
F0.6009615384615384
scnumpy.core.multiarray
scalar
p3
(cnumpy
dtype
p4
(S'i8'
p5
I0
I1
tp6
Rp7
(I3
S'<'
p8
NNNI-1
I-1
I0
tp9
bS'\xb2\x02fm\x0e\x00\x00\x00'
p10
tp11
Rp12
F0.5972288580984233
sI61961025073
F0.5401901469317201
sI61964961871
F0.5283178360101438
sg3
(g7
S'\xba%\x8cW`\x00\x00\x00'
p13
tp14
Rp15
F0.4905808477237049
sI61965020015
F0.5401901469317201
sg3
(g7
S'\xd5\x8bfm\x0e\x00\x00\x00'
p16
tp17
Rp18
F0.4831851565519907
sI61964943979
F0.4880905896134322
sI61964943982
F0.4856254856254857
sI61964943984
F0.589900896649363
sI61964943986
F0.5114566284779051
sI61964943996
F0.5827505827505828
sI61964961925
F0.4880905896134322
sI413791240838
F0.5792400370713624
sI61964961927
F0.4831851565519907
sI61964972168
F0.5972288580984233
sI61964944011
F0.4880905896134322
sI61964944018
F0.5526083112290009
sI61961024963
F0.5526083112290009
sI61964944027
F0.5526083112290009
sI61964944035
F0.5689576695493855
sI61964944038
F0.6047411707789067
sI61960946349
F0.5401901469317201
sI61964944046
F0.5863039399624765
sI61961025202
F0.5060728744939271
sI14720303796
F0.0
sI61964944053
F0.4880905896134322
sI61964944054
F0.5623031938821412
sI61964944057
F0.4831851565519907
sg3
(g7
S'\xba\x02fm\x0e\x00\x00\x00'
p19
tp20
Rp21
F0.5114566284779051
sI61961078559
F0.4807692307692308
sI61964944064
F0.5558025789239662
sI61964944067
F0.4831851565519907
sI61961024887
F0.5401901469317201
sI61961353423
F0.8289124668435013
sI61965359909
F0.5558025789239662
sI413791240929
F0.589900896649363
sI61964944337
F0.5558025789239662
sI61961078506
F0.6819421713038735
sI61964944341
F0.4905808477237049
sI61965359883
F0.4880905896134322
sI61965359903
F0.5935422602089269
sI61961263393
F0.0
sI61961078565
F0.6585879873551106
sI61961078566
F0.5034232782923882
sI61961078573
F0.7396449704142013
sI61965359920
F0.5623031938821412
sI61965019959
F0.4807692307692308
sI61961024824
F0.5623031938821412
sI61965019962
F0.49309664694280075
sI61965359937
F0.4856254856254857
sI61961078595
F0.5169561621174524
sI61965359944
F0.5371723248818221
sI61965359948
F0.5494505494505494
sI61965019982
F0.49820645675567954
sI61965019983
F0.5526083112290009
sg3
(g7
S'R\x07+m\x0e\x00\x00\x00'
p22
tp23
Rp24
F0.5401901469317201
sI61965019987
F0.49820645675567954
sI61961024853
F0.5623031938821412
sI61965019992
F0.5494505494505494
sI61965019994
F0.4807692307692308
sI61961078619
F0.0
sI61965019996
F0.5087505087505088
sg3
(g7
S'`[lm\x0e\x00\x00\x00'
p25
tp26
Rp27
F0.49563838223632034
sI61961024868
F0.5656108597285068
sI61965020009
F0.4856254856254857
sI61965359983
F0.5689576695493855
sI61961024881
F0.49820645675567954
sI61965020019
F0.5371723248818221
sg3
(g7
S't5*m\x0e\x00\x00\x00'
p28
tp29
Rp30
F0.8218277449046679
sI61965020021
F0.5463286713286714
sg3
(g7
S'v5*m\x0e\x00\x00\x00'
p31
tp32
Rp33
F0.0
sI61965359991
F0.5558025789239662
sg3
(g7
S'x5*m\x0e\x00\x00\x00'
p34
tp35
Rp36
F0.34097108565193673
sI61961024891
F0.5494505494505494
sI61965020029
F0.49820645675567954
sI61961024911
F0.5494505494505494
sI61961024912
F0.5723443223443223
sI61961024927
F0.5463286713286714
sI61961024929
F0.8903133903133903
sI61961024937
F0.5723443223443223
sI61961024938
F0.5341880341880342
sI61961024943
F0.6203473945409429
sI61965360050
F0.531236719082023
sI61961024950
F0.46006624953993375
sI61961024951
F0.5432420686657975
sI61964944313
F0.5432420686657975
sI61964979130
F0.4856254856254857
sI61961024956
F0.5371723248818221
sI61964979139
F0.5371723248818221
sI61961024968
F0.5341880341880342
sI61964979150
F0.5526083112290009
sI61964979153
F0.5034232782923882
sI61964979154
F0.5558025789239662
sg3
(g7
S'N\x07+m\x0e\x00\x00\x00'
p37
tp38
Rp39
F0.5060728744939271
sI61964979158
F0.5656108597285068
sI61960619991
F0.5558025789239662
sI61964979163
F0.531236719082023
sI61964944350
F0.5371723248818221
sg3
(g7
S'\xf2\x03fm\x0e\x00\x00\x00'
p40
tp41
Rp42
F0.5114566284779051
sI413787380563
F0.5371723248818221
ssS't_deg'
p43
(dp44
I61961025033
g3
(g4
(S'f8'
p45
I0
I1
tp46
Rp47
(I3
S'<'
p48
NNNI-1
I-1
I0
tp49
bS'Ppb\x82\xda\x08\x84?'
p50
tp51
Rp52
sI61961025054
g3
(g47
S'\x8f\x91wX\xd9)r?'
p53
tp54
Rp55
sI61960946207
g3
(g47
S'\xab\x90T\xa227\x7f?'
p56
tp57
Rp58
sI61961025059
g3
(g47
S'G#r\xf2%\xdb\x84?'
p59
tp60
Rp61
sI61960946218
g3
(g47
S'\x95o\xc2\r\xa7\x9dq?'
p62
tp63
Rp64
sg12
g3
(g47
S'\xa8\x15\xa9\xfa-\xbbG?'
p65
tp66
Rp67
sI61961025073
g3
(g47
S'\x1d\x0b\xe3\x16w\xcfD?'
p68
tp69
Rp70
sI61964961871
g3
(g47
S'&d\xd9sI\xbf+?'
p71
tp72
Rp73
sg15
g3
(g47
S'\x86D\x87\xc8$\xfc"?'
p74
tp75
Rp76
sI61965020015
g3
(g47
S'&d\xd9sI\xbf;?'
p77
tp78
Rp79
sg18
g3
(g47
S'li\xbc\xe5$5\r?'
p80
tp81
Rp82
sI61964943979
g3
(g47
S'\xcbIj:\x00r\x14?'
p83
tp84
Rp85
sI61964943982
g3
(g47
S'\xcbIj:\x00r\x14?'
p86
tp87
Rp88
sI61964943984
g3
(g47
S'\x11OM\xac\xdb\xe7E?'
p89
tp90
Rp91
sI61964943986
g3
(g47
S'\x9cY\x13\x90\x92\xd3(?'
p92
tp93
Rp94
sI61964943996
g3
(g47
S'\x1d\x0b\xe3\x16w\xcfD?'
p95
tp96
Rp97
sI61964961925
g3
(g47
S'VT0\x1e\xb7]\x17?'
p98
tp99
Rp100
sI413791240838
g3
(g47
S'W`6\xeb\xd4\x1f\x7f?'
p101
tp102
Rp103
sI61964961927
g3
(g47
S'li\xbc\xe5$5\r?'
p104
tp105
Rp106
sI61964972168
g3
(g47
S'\xd5\xa2`\x97\xd2aK?'
p107
tp108
Rp109
sI61964944011
g3
(g47
S'VT0\x1e\xb7]\x17?'
p110
tp111
Rp112
sI61964944018
g3
(g47
S'5\x83\x0e\xec\xad\x9eB?'
p113
tp114
Rp115
sI61961024963
g3
(g47
S'2\x1a\xec\xf7\xd5\xc5v?'
p116
tp117
Rp118
sI61964944027
g3
(g47
S'&d\xd9sI\xbf;?'
p119
tp120
Rp121
sI61964944035
g3
(g47
S'\xfb9\xc1\xe4m\x10@?'
p122
tp123
Rp124
sI61964944038
g3
(g47
S'2 o\xde\xe4\xa6J?'
p125
tp126
Rp127
sI61960946349
g3
(g47
S'A?\xa4VI\x86a?'
p128
tp129
Rp130
sI61964944046
g3
(g47
S'\xed\x1a\x8cl\t1I?'
p131
tp132
Rp133
sI61961025202
g3
(g47
S'2 o\xde\xe4\xa6j?'
p134
tp135
Rp136
sI14720303796
g3
(g47
S'\x00\x00\x00\x00\x00\x00\x00\x00'
p137
tp138
Rp139
sI61964944053
g3
(g47
S'A?\xa4VI\x86\x11?'
p140
tp141
Rp142
sI61964944054
g3
(g47
S'\xd7\x05\x00\xa5\x9bYC?'
p143
tp144
Rp145
sI61964944057
g3
(g47
S'li\xbc\xe5$5\r?'
p146
tp147
Rp148
sg21
g3
(g47
S'\x11OM\xac\xdb\xe7%?'
p149
tp150
Rp151
sI61961078559
g3
(g47
S'5\x83\x0e\xec\xad\x9eR?'
p152
tp153
Rp154
sI61964944064
g3
(g47
S'&d\xd9sI\xbf;?'
p155
tp156
Rp157
sI61964944067
g3
(g47
S'A?\xa4VI\x86\x11?'
p158
tp159
Rp160
sI61961024887
g3
(g47
S'\x0bq\x02\xf7\rtv?'
p161
tp162
Rp163
sI61961353423
g3
(g47
S',\xb3\xdc\xe8q\x80\x81?'
p164
tp165
Rp166
sI61965359909
g3
(g47
S'\xef}+z\xd2(A?'
p167
tp168
Rp169
sI413791240929
g3
(g47
S'\t\x0ec\xe9D|^?'
p170
tp171
Rp172
sI61964944337
g3
(g47
S'5\x83\x0e\xec\xad\x9eB?'
p173
tp174
Rp175
sI61961078506
g3
(g47
S'\xb7\xc3%\xb37M\x88?'
p176
tp177
Rp178
sI61964944341
g3
(g47
S'\xcbIj:\x00r$?'
p179
tp180
Rp181
sI61965359883
g3
(g47
S'A?\xa4VI\x86\x11?'
p182
tp183
Rp184
sI61965359903
g3
(g47
S'\x9cY\x13\x90\x92\xd3H?'
p185
tp186
Rp187
sI61961263393
g3
(g47
S'\x00\x00\x00\x00\x00\x00\x00\x00'
p188
tp189
Rp190
sI61961078565
g3
(g47
S'\x12[Sy\xf9\xa9}?'
p191
tp192
Rp193
sI61961078566
g3
(g47
S'\x8c"\xd2}\xf2oR?'
p194
tp195
Rp196
sI61961078573
g3
(g47
S'\xcf\xc4\x15\xe2\x04\xee{?'
p197
tp198
Rp199
sI61965359920
g3
(g47
S'\x92\x00\x1d3\xc0\xe3A?'
p200
tp201
Rp202
sI61965019959
g3
(g47
S'VT0\x1e\xb7]\x07?'
p203
tp204
Rp205
sI61961024824
g3
(g47
S'<s\xe2T\xa8\xb5}?'
p206
tp207
Rp208
sI61965019962
g3
(g47
S'\x86D\x87\xc8$\xfc"?'
p209
tp210
Rp211
sI61965359937
g3
(g47
S'\xcbIj:\x00r\x14?'
p212
tp213
Rp214
sI61961078595
g3
(g47
S'\xa5\xb2\t\xedd\xc3_?'
p215
tp216
Rp217
sI61965359944
g3
(g47
S'&d\xd9sI\xbf;?'
p218
tp219
Rp220
sI61965359948
g3
(g47
S'\xfb9\xc1\xe4m\x10@?'
p221
tp222
Rp223
sI61965019982
g3
(g47
S'\x0f\xec\xad\x9e\x12\xf0=?'
p224
tp225
Rp226
sI61965019983
g3
(g47
S'\xfb9\xc1\xe4m\x10@?'
p227
tp228
Rp229
sg24
g3
(g47
S'\xe4\xcd\x9b\xdcT\x03j?'
p230
tp231
Rp232
sI61965019987
g3
(g47
S'\xe1^\xf6\x01nI\x1a?'
p233
tp234
Rp235
sI61961024853
g3
(g47
S'\x92\x00\x1d3\xc0\xe3q?'
p236
tp237
Rp238
sI61965019992
g3
(g47
S'\x0f\xec\xad\x9e\x12\xf0=?'
p239
tp240
Rp241
sI61965019994
g3
(g47
S'VT0\x1e\xb7]\x07?'
p242
tp243
Rp244
sI61961078619
g3
(g47
S'\x00\x00\x00\x00\x00\x00\x00\x00'
p245
tp246
Rp247
sI61965019996
g3
(g47
S"VT0\x1e\xb7]'?"
p248
tp249
Rp250
sg27
g3
(g47
S'VT0\x1e\xb7]\x17?'
p251
tp252
Rp253
sI61961024868
g3
(g47
S'\xe4\xcd\x9b\xdcT\x03z?'
p254
tp255
Rp256
sI61965020009
g3
(g47
S'li\xbc\xe5$5\r?'
p257
tp258
Rp259
sI61965359983
g3
(g47
S'\xfb9\xc1\xe4m\x10@?'
p260
tp261
Rp262
sI61961024881
g3
(g47
S'2 o\xde\xe4\xa6J?'
p263
tp264
Rp265
sI61965020019
g3
(g47
S'\xfb9\xc1\xe4m\x100?'
p266
tp267
Rp268
sg30
g3
(g47
S'\xaa\x01\rb\x8d\x84\x85?'
p269
tp270
Rp271
sI61965020021
g3
(g47
S'\x92\x00\x1d3\xc0\xe3A?'
p272
tp273
Rp274
sg33
g3
(g47
S'\x00\x00\x00\x00\x00\x00\x00\x00'
p275
tp276
Rp277
sI61965359991
g3
(g47
S'Pv\xe5h\xe9\xe9W?'
p278
tp279
Rp280
sg36
g3
(g47
S"VT0\x1e\xb7]'?"
p281
tp282
Rp283
sI61961024891
g3
(g47
S'%RP\xc0\x1c\x1c\x80?'
p284
tp285
Rp286
sI61965020029
g3
(g47
S'\xfb9\xc1\xe4m\x10 ?'
p287
tp288
Rp289
sI61961024911
g3
(g47
S'\x1d\x0b\xe3\x16w\xcfd?'
p290
tp291
Rp292
sI61961024912
g3
(g47
S'~\x03\x9d\x05\x8e\x90k?'
p293
tp294
Rp295
sI61961024927
g3
(g47
S'e\x7fkc9\xffe?'
p296
tp297
Rp298
sI61961024929
g3
(g47
S'\x83X#a\xc52\x95?'
p299
tp300
Rp301
sI61961024937
g3
(g47
S'\x0bw\x85\xdd\x1cUz?'
p302
tp303
Rp304
sI61961024938
g3
(g47
S'\xf9\xd6!\xd7\xa4\x18h?'
p305
tp306
Rp307
sI61961024943
g3
(g47
S'i\xf4\x93$/\x9ay?'
p308
tp309
Rp310
sI61965360050
g3
(g47
S'\x9e\xbc\xb2\x9d[\xcb0?'
p311
tp312
Rp313
sI61961024950
g3
(g47
S'li\xbc\xe5$5-?'
p314
tp315
Rp316
sI61961024951
g3
(g47
S'\xe0R\xf04P\x87r?'
p317
tp318
Rp319
sI61964944313
g3
(g47
S'\xfb9\xc1\xe4m\x10@?'
p320
tp321
Rp322
sI61964979130
g3
(g47
S'VT0\x1e\xb7]\x17?'
p323
tp324
Rp325
sI61961024956
g3
(g47
S'\xb4\xd1>e\xc9\xa2f?'
p326
tp327
Rp328
sI61964979139
g3
(g47
S'A?\xa4VI\x86A?'
p329
tp330
Rp331
sI61961024968
g3
(g47
S'\\2{\xd3\x84\xd1f?'
p332
tp333
Rp334
sI61964979150
g3
(g47
S'\xef}+z\xd2(A?'
p335
tp336
Rp337
sI61964979153
g3
(g47
S'\x11OM\xac\xdb\xe7%?'
p338
tp339
Rp340
sI61964979154
g3
(g47
S'\x92\x00\x1d3\xc0\xe3A?'
p341
tp342
Rp343
sg39
g3
(g47
S'\xc5k\x1f\x852\xfeT?'
p344
tp345
Rp346
sI61964979158
g3
(g47
S'\x92\x00\x1d3\xc0\xe3A?'
p347
tp348
Rp349
sI61960619991
g3
(g47
S'\xfcE\xc7\xb1\x8b\xd2w?'
p350
tp351
Rp352
sI61964979163
g3
(g47
S'\x9e\xbc\xb2\x9d[\xcb0?'
p353
tp354
Rp355
sI61964944350
g3
(g47
S'\xe1^\xf6\x01nI:?'
p356
tp357
Rp358
sg42
g3
(g47
S'\x11OM\xac\xdb\xe7%?'
p359
tp360
Rp361
sI413787380563
g3
(g47
S'#\xe9-\xccDCT?'
p362
tp363
Rp364
ssS'avg_bt'
p365
(dp366
I61961025033
F0.000883666486506502
sI61961025054
F0.0006037467294577306
sI61960946207
F0.0010900796133873302
sI61961025059
F0.0008323399689762967
sI61960946218
F0.0002734758304740986
sg12
F2.5241846224084198e-05
sI61961025073
F2.2640591296010287e-05
sI61964961871
F2.575199921176993e-06
sg15
F4.313771309488052e-06
sI61965020015
F2.1517249490579313e-05
sg18
F1.7529110729089973e-06
sI61964943979
F6.588715540329352e-07
sI61964943982
F4.5402152343443113e-07
sI61964943984
F2.170377414371003e-05
sI61964943986
F2.186691892934824e-06
sI61964943996
F3.1642528680002235e-05
sI61964961925
F3.418526789432174e-06
sI413791240838
F0.000908552103722051
sI61964961927
F1.1813172046721755e-06
sI61964972168
F7.120744073154006e-05
sI61964944011
F2.500009326361172e-06
sI61964944018
F7.831205870333323e-05
sI61961024963
F0.0008539071416850604
sI61964944027
F6.23519157450966e-06
sI61964944035
F8.88142568403756e-06
sI61964944038
F7.206091870038821e-05
sI61960946349
F0.00015755928099072219
sI61964944046
F3.4788376774757586e-05
sI61961025202
F0.00010029666377752192
sI14720303796
F0.0
sI61964944053
F3.532136520816439e-07
sI61964944054
F1.4618925160606217e-05
sI61964944057
F8.087215165706318e-07
sg21
F4.475836482216558e-06
sI61961078559
F7.317229864451681e-05
sI61964944064
F7.719671771440255e-06
sI61964944067
F1.95895477139833e-06
sI61961024887
F0.00036261434765995706
sI61961353423
F0.000798261253130479
sI61965359909
F1.821278378510409e-05
sI413791240929
F7.232899159810182e-05
sI61964944337
F2.4269518315425957e-05
sI61961078506
F0.0008388833006358401
sI61964944341
F7.612819805977442e-06
sI61965359883
F5.370248032444704e-07
sI61965359903
F5.9309111761837765e-05
sI61961263393
F0.0
sI61961078565
F0.00045674874044623643
sI61961078566
F6.265532228428955e-05
sI61961078573
F0.0007649063655025229
sI61965359920
F4.16009270928707e-05
sI61965019959
F1.1800684549843613e-07
sI61961024824
F0.0010152094928956813
sI61965019962
F1.985121769347039e-06
sI61965359937
F4.998901094030976e-07
sI61961078595
F0.00012257375095935336
sI61965359944
F5.246744351399936e-06
sI61965359948
F6.873991606865314e-06
sI61965019982
F3.9950171148791545e-05
sI61965019983
F3.0466466125550446e-05
sg24
F0.00017411542874402758
sI61965019987
F6.644067049183913e-07
sI61961024853
F0.00037265510770166855
sI61965019992
F1.2670839954708415e-05
sI61965019994
F2.1761281426840716e-07
sI61961078619
F0.0
sI61965019996
F3.5323774901696083e-06
sg27
F5.0698909110414e-07
sI61961024868
F0.0007307515052492896
sI61965020009
F7.376034821054694e-07
sI61965359983
F1.2070509890941567e-05
sI61961024881
F1.703440521798249e-05
sI61965020019
F7.80319381102981e-06
sg30
F0.0005811701654337382
sI61965020021
F1.0277761621023098e-05
sg33
F0.0
sI61965359991
F3.137932628296149e-05
sg36
F4.326917668275992e-07
sI61961024891
F0.00027589019530492055
sI61965020029
F4.289233360262812e-06
sI61961024911
F0.0001784542789298896
sI61961024912
F0.00024765410943820555
sI61961024927
F0.00020973805370228804
sI61961024929
F0.0019469748932871228
sI61961024937
F0.0006787748568211628
sI61961024938
F0.0003247428640264007
sI61961024943
F0.0007293701147387477
sI61965360050
F9.816811450867495e-06
sI61961024950
F2.9010016185032215e-05
sI61961024951
F0.00045477435972885355
sI61964944313
F8.042567937990596e-06
sI61964979130
F2.574053417176867e-06
sI61961024956
F0.00016570573459314
sI61964979139
F1.2572762813935759e-05
sI61961024968
F0.00019422038964304403
sI61964979150
F1.0118558795702588e-05
sI61964979153
F3.5353152854188406e-06
sI61964979154
F1.3015839520242776e-05
sg39
F3.1265843472640704e-05
sI61964979158
F1.3614039418403575e-05
sI61960619991
F0.0006859273867439545
sI61964979163
F1.916674169550139e-06
sI61964944350
F4.1015162128142515e-06
sg42
F7.221987725762097e-06
sI413787380563
F5.6327803639273344e-05
ssS't_bt'
p367
(dp368
I61961025033
g3
(g47
S'\xa3\x1d\xec\xda\xb7\xfb\x15@'
p369
tp370
Rp371
sI61961025054
g3
(g47
S'?\xf2\x04\x00Q,\xfb?'
p372
tp373
Rp374
sI61960946207
g3
(g47
S'\xd3\xe8=\x02\x19:\x05@'
p375
tp376
Rp377
sI61961025059
g3
(g47
S'\x04N\xe3\xdb\xcb\x1d\x1f@'
p378
tp379
Rp380
sI61960946218
g3
(g47
S'I\x10\x86\xd3\x15\xc4\x0b@'
p381
tp382
Rp383
sg12
g3
(g47
S'\xf6\xd8\xbd\\7\xb8\xd1?'
p384
tp385
Rp386
sI61961025073
g3
(g47
S'w\x98\xec\xf3\xfe\xb2$@'
p387
tp388
Rp389
sI61964961871
g3
(g47
S'=\x8c\xc0\xabP\xf4\xc0?'
p390
tp391
Rp392
sg15
g3
(g47
S'!J\xe7\x98c\xb3\xc4?'
p393
tp394
Rp395
sI61965020015
g3
(g47
S'\xe2\xa2\x94n\xd9\x89\xbe?'
p396
tp397
Rp398
sg18
g3
(g47
S'L\x10\x87\t\x87m\x87?'
p399
tp400
Rp401
sI61964943979
g3
(g47
S'\x933\xf7\x90y,\xe5?'
p402
tp403
Rp404
sI61964943982
g3
(g47
S'\xd2\x87\xd3i\x02\x98\x99?'
p405
tp406
Rp407
sI61964943984
g3
(g47
S'\x88\x986\xc5H\x97\xd2?'
p408
tp409
Rp410
sI61964943986
g3
(g47
S'\xe5\xb2\xd6\x7f5^\xc1?'
p411
tp412
Rp413
sI61964943996
g3
(g47
S'k\xcc\xa0\xf3\xff\x82\xdb?'
p414
tp415
Rp416
sI61964961925
g3
(g47
S'%cL4\xec\x1a\x85?'
p417
tp418
Rp419
sI413791240838
g3
(g47
S'\n\xa10\xb5\x9b\x12\x12@'
p420
tp421
Rp422
sI61964961927
g3
(g47
S'V\xd3\x9cdyeP?'
p423
tp424
Rp425
sI61964972168
g3
(g47
S'\xad\xb8\xf4\xf6\xea\x1f\xdb?'
p426
tp427
Rp428
sI61964944011
g3
(g47
S'\x92\x0eBgG1y?'
p429
tp430
Rp431
sI61964944018
g3
(g47
S'\xe7{d\xce\x10\xf5\x18@'
p432
tp433
Rp434
sI61961024963
g3
(g47
S'\xd8\x10\xee\xb4\xc20\x14@'
p435
tp436
Rp437
sI61964944027
g3
(g47
S'R\xb8Q]<A\xa4?'
p438
tp439
Rp440
sI61964944035
g3
(g47
S'\xaf\x14\xe5\xea\x93\x1a\xbb?'
p441
tp442
Rp443
sI61964944038
g3
(g47
S'\x81\xf7\xb2\xba5\x1f\xe1?'
p444
tp445
Rp446
sI61960946349
g3
(g47
S'\xfc\x96\x82K\x8b\xe0\xeb?'
p447
tp448
Rp449
sI61964944046
g3
(g47
S'\x98g{v\x04\xe4\xce?'
p450
tp451
Rp452
sI61961025202
g3
(g47
S'\x86\xf2\x0e\xab\x8f\xf2 @'
p453
tp454
Rp455
sI14720303796
g3
(g47
S'\x00\x00\x00\x00\x00\x00\x00\x00'
p456
tp457
Rp458
sI61964944053
g3
(g47
S'\xd3Y\xf1\x90\xcc\xcf\xcd?'
p459
tp460
Rp461
sI61964944054
g3
(g47
S'\xa3\xac,;\xec\t\xe3?'
p462
tp463
Rp464
sI61964944057
g3
(g47
S'\xdb\xe8\xf7\xf7\xb6\x03i?'
p465
tp466
Rp467
sg21
g3
(g47
S'\xa8\x89/\xa5/9\xce?'
p468
tp469
Rp470
sI61961078559
g3
(g47
S'\x8a\xcb\x1c\x11\xff\xf8\xee?'
p471
tp472
Rp473
sI61964944064
g3
(g47
S'kn\xd7CM2\xef?'
p474
tp475
Rp476
sI61964944067
g3
(g47
S'N\xbci\x89S\x12\x90?'
p477
tp478
Rp479
sI61961024887
g3
(g47
S'S\x98k\x97\xf1\xe8)@'
p480
tp481
Rp482
sI61961353423
g3
(g47
S'\x02\xce\xafN\xc6\xb5\x14@'
p483
tp484
Rp485
sI61965359909
g3
(g47
S'-\xa7\xff\xbf\x1d$\xd2?'
p486
tp487
Rp488
sI413791240929
g3
(g47
S'\x9d\xbeV{=#\xed?'
p489
tp490
Rp491
sI61964944337
g3
(g47
S'\xe8\x84x\xf6\x9a\xaf\xc0?'
p492
tp493
Rp494
sI61961078506
g3
(g47
S'F\x9cB\xe7\x946\x1b@'
p495
tp496
Rp497
sI61964944341
g3
(g47
S')[\xc2\x8f:\xa3\xec?'
p498
tp499
Rp500
sI61965359883
g3
(g47
S'\xeaO\xb03f\xd4\xcf?'
p501
tp502
Rp503
sI61965359903
g3
(g47
S'\x95\n\xba\xda\xdb\xa2\xd2?'
p504
tp505
Rp506
sI61961263393
g3
(g47
S'\x00\x00\x00\x00\x00\x00\x00\x00'
p507
tp508
Rp509
sI61961078565
g3
(g47
S'\xcc\xa3\xe7Cc\xcb\x14@'
p510
tp511
Rp512
sI61961078566
g3
(g47
S',\xaf\x825\x017\xd6?'
p513
tp514
Rp515
sI61961078573
g3
(g47
S'\x02\xbe\x0b\x93\xfa\x84\x04@'
p516
tp517
Rp518
sI61965359920
g3
(g47
S'\xea\xbfx_8\xa5\xb6?'
p519
tp520
Rp521
sI61965019959
g3
(g47
S'f\x18\xe5\xda\xe0\xe4\xcf?'
p522
tp523
Rp524
sI61961024824
g3
(g47
S'\xa9]\x9f_^\xea\x17@'
p525
tp526
Rp527
sI61965019962
g3
(g47
S'H`\xe7e\x08\xa3\xff?'
p528
tp529
Rp530
sI61965359937
g3
(g47
S'\xb7@=;\xfc\x12\xe5?'
p531
tp532
Rp533
sI61961078595
g3
(g47
S'\x07\xb6\xb6\r\xcb\xd8\xe1?'
p534
tp535
Rp536
sI61965359944
g3
(g47
S'\xb5\x17\xc5\x9f\xb8t\xeb?'
p537
tp538
Rp539
sI61965359948
g3
(g47
S'\xc1\x0c\xdb\x93\xf9\xd9\xba?'
p540
tp541
Rp542
sI61965019982
g3
(g47
S'\xe7dyBa\xe9\xcd?'
p543
tp544
Rp545
sI61965019983
g3
(g47
S'\xae?:\xad\x00\xd9\xc7?'
p546
tp547
Rp548
sg24
g3
(g47
S'\x85,\xa3\x15\xa7\xe1\xf2?'
p549
tp550
Rp551
sI61965019987
g3
(g47
S'\xa9\xe0\xb5\x16\x8do\xb3?'
p552
tp553
Rp554
sI61961024853
g3
(g47
S'f\t\x05\xdfo\xcd\x00@'
p555
tp556
Rp557
sI61965019992
g3
(g47
S'\x899e\x11\x81\x12\xc4?'
p558
tp559
Rp560
sI61965019994
g3
(g47
S'O\x1d\xd6\xdb[\xd5k?'
p561
tp562
Rp563
sI61961078619
g3
(g47
S'\x00\x00\x00\x00\x00\x00\x00\x00'
p564
tp565
Rp566
sI61965019996
g3
(g47
S'\x98o~I\xc1\xddT?'
p567
tp568
Rp569
sg27
g3
(g47
S'\x0eR\x0b\x84\xac\x86\x80?'
p570
tp571
Rp572
sI61961024868
g3
(g47
S'4\xc4\xddK\xeaS\x14@'
p573
tp574
Rp575
sI61965020009
g3
(g47
S'\x19=\xfe\xdc~H\x17?'
p576
tp577
Rp578
sI61965359983
g3
(g47
S'0G\xb0\xcc\xa1J\xd2?'
p579
tp580
Rp581
sI61961024881
g3
(g47
S'?\xdb0\xfdS\x05\xe8?'
p582
tp583
Rp584
sI61965020019
g3
(g47
S'\xf9\x83g\xf7\xac\xb3\xc2?'
p585
tp586
Rp587
sg30
g3
(g47
S'C&eu\x11\xb1)@'
p588
tp589
Rp590
sI61965020021
g3
(g47
S'<\x01\xeaq:\xde\xc5?'
p591
tp592
Rp593
sg33
g3
(g47
S'\x00\x00\x00\x00\x00\x00\x00\x00'
p594
tp595
Rp596
sI61965359991
g3
(g47
S'\x8a\x1a\x16q\x04\xaa\x1b@'
p597
tp598
Rp599
sg36
g3
(g47
S'\x06\x0cjQ\xffR\xc9?'
p600
tp601
Rp602
sI61961024891
g3
(g47
S'\x8a\xb1\xd1\xd95j\x08@'
p603
tp604
Rp605
sI61965020029
g3
(g47
S'\x1b\xf0\xbf\xf0\x89Z\x82?'
p606
tp607
Rp608
sI61961024911
g3
(g47
S'\x1a\xc0\xa0\xcf\xd7\xd2\xe3?'
p609
tp610
Rp611
sI61961024912
g3
(g47
S'\xb9\xc4@\x99\xe1o\xfe?'
p612
tp613
Rp614
sI61961024927
g3
(g47
S'\xd9\x8f\x95*\x9f\xdb\xf2?'
p615
tp616
Rp617
sI61961024929
g3
(g47
S'\x9cVw\x06\x8b\x85E@'
p618
tp619
Rp620
sI61961024937
g3
(g47
S'l\xd26\\bo\x06@'
p621
tp622
Rp623
sI61961024938
g3
(g47
S'\x9cc+\x93\xbdu\xec?'
p624
tp625
Rp626
sI61961024943
g3
(g47
S'\xb0>(\x8a\xf5n\x08@'
p627
tp628
Rp629
sI61965360050
g3
(g47
S'-\x14:\x16\xa1\xe0\xc8?'
p630
tp631
Rp632
sI61961024950
g3
(g47
S'\xfc\xdf^U#\xc3\xa5?'
p633
tp634
Rp635
sI61961024951
g3
(g47
S'\xafi\xaf\xf9\x8b\x07\x1c@'
p636
tp637
Rp638
sI61964944313
g3
(g47
S'\x02\xe2B\xd6\x9b\xf2\xe1?'
p639
tp640
Rp641
sI61964979130
g3
(g47
S'\x13\xcb\x18T\x86iy?'
p642
tp643
Rp644
sI61961024956
g3
(g47
S'.0\x02\xc2>\x7f\xf7?'
p645
tp646
Rp647
sI61964979139
g3
(g47
S'L\xb8C\x99\xa2N\xc7?'
p648
tp649
Rp650
sI61961024968
g3
(g47
S' \xe5U"#\x94\xec?'
p651
tp652
Rp653
sI61964979150
g3
(g47
S'l\xd5\xbc\x0b,\xea\xc1?'
p654
tp655
Rp656
sI61964979153
g3
(g47
S'\xa5\xde~\x0e\xc2\x9b\xf0?'
p657
tp658
Rp659
sI61964979154
g3
(g47
S'd`:\xc3@U\xd0?'
p660
tp661
Rp662
sg39
g3
(g47
S'^t\xa2\xc0\x1d\xbc\xea?'
p663
tp664
Rp665
sI61964979158
g3
(g47
S'C7\xc5\xbf\xdaG\xd4?'
p666
tp667
Rp668
sI61960619991
g3
(g47
S',\xf4"N\xa0Q\x03@'
p669
tp670
Rp671
sI61964979163
g3
(g47
S'\x90w\x17\x99\xbba\x99?'
p672
tp673
Rp674
sI61964944350
g3
(g47
S'+\x86\xb2e,\xa9\xb2?'
p675
tp676
Rp677
sg42
g3
(g47
S'\xe65\xee\x94\x83)\xdf?'
p678
tp679
Rp680
sI413787380563
g3
(g47
S'P\xe5\x08F:M\n@'
p681
tp682
Rp683
ssS'avg_deg'
p684
(dp685
I61961025033
F0.01006105713521701
sI61961025054
F0.0044344415723326465
sI61960946207
F0.007621000089134493
sI61961025059
F0.010250467956145785
sI61960946218
F0.00430073981638292
sg12
F0.0007465014707193154
sI61961025073
F0.0006350833407612085
sI61964961871
F0.0002116944469204029
sg15
F0.00014484356894553882
sI61965020015
F0.0004233888938408058
sg18
F5.57090649790534e-05
sI61964943979
F7.799269097067476e-05
sI61964943982
F7.799269097067476e-05
sI61964943984
F0.0007130760317318835
sI61964943986
F0.00018941082092878154
sI61964943996
F0.0006573669667528301
sI61964961925
F8.913450396648544e-05
sI413791240838
F0.007598716463142891
sI61964961927
F5.57090649790534e-05
sI61964972168
F0.0008802032266690435
sI61964944011
F8.913450396648542e-05
sI61964944018
F0.0005682324627863445
sI61961024963
F0.005559764684909526
sI61964944027
F0.00044567251983242714
sI61964944035
F0.0005125233978072912
sI61964944038
F0.0008579196006774221
sI61960946349
F0.00213922809519565
sI61964944046
F0.0007910687227025582
sI61961025202
F0.00354309653266778
sI14720303796
F0.0
sI61964944053
F6.685087797486407e-05
sI61964944054
F0.000590516088777966
sI61964944057
F5.570906497905339e-05
sg21
F0.0001671271949371602
sI61961078559
F0.001136464925572689
sI61964944064
F0.0004233888938408058
sI61964944067
F6.685087797486407e-05
sI61961024887
F0.00548177199393885
sI61961353423
F0.008835457705677875
sI61965359909
F0.000523665210803102
sI413791240929
F0.0018606827703003832
sI61964944337
F0.0005682324627863447
sI61961078506
F0.013136197522060742
sI61964944341
F0.0001559853819413495
sI61965359883
F6.685087797486407e-05
sI61965359903
F0.0008022105356983688
sI61961263393
F0.0
sI61961078565
F0.007531865585168009
sI61961078566
F0.0011253231125768783
sI61961078573
F0.007153043943310451
sI61965359920
F0.0005459488367947232
sI61965019959
F4.456725198324272e-05
sI61961024824
F0.007387022016222485
sI61965019962
F0.00014484356894553882
sI61965359937
F7.799269097067476e-05
sI61961078595
F0.0019386754612710612
sI61965359944
F0.0004233888938408058
sI61965359948
F0.0004902397718156699
sI61965019982
F0.00045681433282823784
sI61965019983
F0.0004902397718156699
sg24
F0.003175416703806042
sI61965019987
F0.00010027631696229612
sI61961024853
F0.004389874320349405
sI61965019992
F0.0004568143328282378
sI61965019994
F4.456725198324272e-05
sI61961078619
F0.0
sI61965019996
F0.00017826900793297087
sg27
F8.913450396648544e-05
sI61961024868
F0.006395400659595325
sI61965020009
F5.570906497905339e-05
sI61965359983
F0.0004902397718156698
sI61961024881
F0.0008133523486941789
sI61965020019
F0.00024511988590783496
sg30
F0.010573580533024325
sI61965020021
F0.0005459488367947232
sg33
F0.0
sI61965359991
F0.0014595775024511992
sg36
F0.00017826900793297085
sI61961024891
F0.007877261788038128
sI61965020029
F0.00012255994295391748
sI61961024911
F0.002763169622961045
sI61961024912
F0.0036322310366342773
sI61961024927
F0.0026851769319903734
sI61961024929
F0.022551029503520795
sI61961024937
F0.007186469382297887
sI61961024938
F0.00318655851680185
sI61961024943
F0.006250557090649787
sI61965360050
F0.0002562616989036456
sI61961024950
F0.00022283625991621357
sI61961024951
F0.004523576076299116
sI61964944313
F0.0004902397718156699
sI61964979130
F8.913450396648544e-05
sI61961024956
F0.00276316962296105
sI61964979139
F0.0005348070237989126
sI61961024968
F0.0027854532489526695
sI61964979150
F0.000523665210803102
sI61964979153
F0.00016712719493716018
sI61964979154
F0.0005459488367947233
sg39
F0.0053814956769765426
sI61964979158
F0.0005459488367947232
sI61960619991
F0.0058160263838131785
sI61964979163
F0.0002562616989036456
sI61964944350
F0.00040110526784918447
sg42
F0.00016712719493716018
sI413787380563
F0.0012367412425349856
ssS't_cl'
p686
(dp687
I61961025033
g3
(g47
S'\xce\xd0\x93j\xb4\x9e\xa4?'
p688
tp689
Rp690
sI61961025054
g3
(g47
S'\x052\xda\xa1m\x7f\x9e?'
p691
tp692
Rp693
sI61960946207
g3
(g47
S'\xb13\x8cP\xf3\xd2\xa1?'
p694
tp695
Rp696
sI61961025059
g3
(g47
S'I\xbc\xac\xed\x85\xc4\xa5?'
p697
tp698
Rp699
sI61960946218
g3
(g47
S'\xa6\xae\x84<\xcc\xba\x9e?'
p700
tp701
Rp702
sg12
g3
(g47
S'D\x13R\x06n\x19\x81?'
p703
tp704
Rp705
sI61961025073
g3
(g47
S'A\x86*\xbc\xa7`\x91?'
p706
tp707
Rp708
sI61964961871
g3
(g47
S'\x9b_\xdb6\x06\xda|?'
p709
tp710
Rp711
sg15
g3
(g47
S'\xf3\xbc\x8a\x07\x8b\x92k?'
p712
tp713
Rp714
sI61965020015
g3
(g47
S'9a\xa4\x1c\x90%\x81?'
p715
tp716
Rp717
sg18
g3
(g47
S'\xfc\xf1H\xe0@It?'
p718
tp719
Rp720
sI61964943979
g3
(g47
S'3o\xfae\x86`x?'
p721
tp722
Rp723
sI61964943982
g3
(g47
S'r\xbf\xeeo\x14Kx?'
p724
tp725
Rp726
sI61964943984
g3
(g47
S'9\xad.\x94T\x86\x82?'
p727
tp728
Rp729
sI61964943986
g3
(g47
S'X\xde=5\xbcq\x7f?'
p730
tp731
Rp732
sI61964943996
g3
(g47
S'\xd8\x83\xa7\xe0uu\x81?'
p733
tp734
Rp735
sI61964961925
g3
(g47
S'P\x9b\xc2\xb2,\xccu?'
p736
tp737
Rp738
sI413791240838
g3
(g47
S'\xcf\xf5m\xc5\x02\x18\xa2?'
p739
tp740
Rp741
sI61964961927
g3
(g47
S'9&\xf1\xfe2Dw?'
p742
tp743
Rp744
sI61964972168
g3
(g47
S'\xb1,6\xce\xb6\x8c\x83?'
p745
tp746
Rp747
sI61964944011
g3
(g47
S'\xe7N4\x99N\x9dw?'
p748
tp749
Rp750
sI61964944018
g3
(g47
S'\xa4tx\xf6\x92\xf5\x7f?'
p751
tp752
Rp753
sI61961024963
g3
(g47
S'\xa4\xdb\x8f^b\xc2\xa1?'
p754
tp755
Rp756
sI61964944027
g3
(g47
S'\xc7u\x7f#X\xf7\x81?'
p757
tp758
Rp759
sI61964944035
g3
(g47
S'\x07E\xef\xa9\x98x\x81?'
p760
tp761
Rp762
sI61964944038
g3
(g47
S'\x8e}\x82%!L\x81?'
p763
tp764
Rp765
sI61960946349
g3
(g47
S'\x88\x1c+\x8a\xa8\xfb\x96?'
p766
tp767
Rp768
sI61964944046
g3
(g47
S'\x84\xfbK\xc5\xbc\xe4\x82?'
p769
tp770
Rp771
sI61961025202
g3
(g47
S'\x14\xe7\xa5c\x18\xc3\x91?'
p772
tp773
Rp774
sI14720303796
g3
(g47
S'\x00\x00\x00\x00\x00\x00\x00\x00'
p775
tp776
Rp777
sI61964944053
g3
(g47
S'\x9bC\xe1n$gw?'
p778
tp779
Rp780
sI61964944054
g3
(g47
S'plR\xc9\x14\xc2\x82?'
p781
tp782
Rp783
sI61964944057
g3
(g47
S'\xd7\xe1\x0b4s^w?'
p784
tp785
Rp786
sg21
g3
(g47
S'\xdc\x99R\xca\x7f3x?'
p787
tp788
Rp789
sI61961078559
g3
(g47
S'\xfe>\xbb}\xfb\xcc\x8b?'
p790
tp791
Rp792
sI61964944064
g3
(g47
S'e\xdd\xf7\x80>\x8e\x81?'
p793
tp794
Rp795
sI61964944067
g3
(g47
S'`\xed\xd6\xd1\x7f\x1cu?'
p796
tp797
Rp798
sI61961024887
g3
(g47
S'\xce\xb8YlcN\x9f?'
p799
tp800
Rp801
sI61961353423
g3
(g47
S'\xd5\x19\xdc\xc8N\xe9\xa1?'
p802
tp803
Rp804
sI61965359909
g3
(g47
S'\xd9\x1093\x03\x93y?'
p805
tp806
Rp807
sI413791240929
g3
(g47
S'\x9f\xf2\x8f}\xf8Y\x92?'
p808
tp809
Rp810
sI61964944337
g3
(g47
S'%\x04\x9e\x82n\x0e\x82?'
p811
tp812
Rp813
sI61961078506
g3
(g47
S'&\xc3hk\x9fu\xa6?'
p814
tp815
Rp816
sI61964944341
g3
(g47
S'\x82\xb2\xb5\x9d/&{?'
p817
tp818
Rp819
sI61965359883
g3
(g47
S'\x0e\x9aO7^5x?'
p820
tp821
Rp822
sI61965359903
g3
(g47
S'\xe5\x04%I\xca\xfd\x80?'
p823
tp824
Rp825
sI61961263393
g3
(g47
S'\x00\x00\x00\x00\x00\x00\x00\x00'
p826
tp827
Rp828
sI61961078565
g3
(g47
S'\xb70\x90c\xcb3\xa2?'
p829
tp830
Rp831
sI61961078566
g3
(g47
S'b\x07\xc0Y9\x06z?'
p832
tp833
Rp834
sI61961078573
g3
(g47
S'\x96@<QY\x01\xa1?'
p835
tp836
Rp837
sI61965359920
g3
(g47
S'\xf2\xcc\xaf\x83\x8c\xa1\x85?'
p838
tp839
Rp840
sI61965019959
g3
(g47
S'"+4\x89\xa4\x9bw?'
p841
tp842
Rp843
sI61961024824
g3
(g47
S'\xa0\x93\x13Q\x16B\xa1?'
p844
tp845
Rp846
sI61965019962
g3
(g47
S'\x00\xf0o\xb3ajy?'
p847
tp848
Rp849
sI61965359937
g3
(g47
S'\xf9!\x85,\xec\xffu?'
p850
tp851
Rp852
sI61961078595
g3
(g47
S'\xaf\xa9\n\x03\xe4O\x98?'
p853
tp854
Rp855
sI61965359944
g3
(g47
S'\xf8\x9e,B\xf6]\x85?'
p856
tp857
Rp858
sI61965359948
g3
(g47
S'\xc2!\xe9\x8e\xb3\t\x81?'
p859
tp860
Rp861
sI61965019982
g3
(g47
S'6\xb3\x85\xe7\x13\xe9y?'
p862
tp863
Rp864
sI61965019983
g3
(g47
S'\x8bv\x14&\x98\x98\x81?'
p865
tp866
Rp867
sg24
g3
(g47
S'5k\xe17\xd5\xdd\x9a?'
p868
tp869
Rp870
sI61965019987
g3
(g47
S'_\r\xc7\xb5\n~~?'
p871
tp872
Rp873
sI61961024853
g3
(g47
S'\xaf\xcf=C\x1f\xef\x9f?'
p874
tp875
Rp876
sI61965019992
g3
(g47
S'\x9b\x88\x03ga`\x81?'
p877
tp878
Rp879
sI61965019994
g3
(g47
S'\xeb\xb8\xfeC\xdats?'
p880
tp881
Rp882
sI61961078619
g3
(g47
S'\x00\x00\x00\x00\x00\x00\x00\x00'
p883
tp884
Rp885
sI61965019996
g3
(g47
S'\x87+\xb1\xd4M\xf0y?'
p886
tp887
Rp888
sg27
g3
(g47
S'\x01"\xb5cB\xd8{?'
p889
tp890
Rp891
sI61961024868
g3
(g47
S'\x1eN\x18\xf5\xa5\x1d\xa1?'
p892
tp893
Rp894
sI61965020009
g3
(g47
S'29!RBgv?'
p895
tp896
Rp897
sI61965359983
g3
(g47
S'\xe9\xbe"\xfb.\xca~?'
p898
tp899
Rp900
sI61961024881
g3
(g47
S'\x9bi8=\xb9\x83\x87?'
p901
tp902
Rp903
sI61965020019
g3
(g47
S'Y\xc8n\xdc\xdb\xb6}?'
p904
tp905
Rp906
sg30
g3
(g47
S'u\x8a\x06\x91\x86D\xa4?'
p907
tp908
Rp909
sI61965020021
g3
(g47
S'\xe9x\x1d\x17\xf2M\x81?'
p910
tp911
Rp912
sg33
g3
(g47
S'\x00\x00\x00\x00\x00\x00\x00\x00'
p913
tp914
Rp915
sI61965359991
g3
(g47
S'"x164T\x90?'
p916
tp917
Rp918
sg36
g3
(g47
S'\xb3\xebn\x00_\x9cx?'
p919
tp920
Rp921
sI61961024891
g3
(g47
S'9\xae\xf8>\xda\x97\xa4?'
p922
tp923
Rp924
sI61965020029
g3
(g47
S'2[\x0e_\x98\xd0v?'
p925
tp926
Rp927
sI61961024911
g3
(g47
S'G(\x9a\xc7\x00\xb2\x96?'
p928
tp929
Rp930
sI61961024912
g3
(g47
S'H^\x02\x8e\xd6\xdc\x9a?'
p931
tp932
Rp933
sI61961024927
g3
(g47
S'\x85\xa8\x9e>]{\x97?'
p934
tp935
Rp936
sI61961024929
g3
(g47
S'\xa4\x85G\xc760\xac?'
p937
tp938
Rp939
sI61961024937
g3
(g47
S'\x8c;\x01\x98\xd4\xa3\xa1?'
p940
tp941
Rp942
sI61961024938
g3
(g47
S'\x98\xce}2\xd7\x9e\x98?'
p943
tp944
Rp945
sI61961024943
g3
(g47
S'\xa4N\xe9\x9f\xb6\x08\xa0?'
p946
tp947
Rp948
sI61965360050
g3
(g47
S'0O\xa3\x0b\xa9\xb9~?'
p949
tp950
Rp951
sI61961024950
g3
(g47
S'\x12HH\x0e\xa0K\x82?'
p952
tp953
Rp954
sI61961024951
g3
(g47
S'\xa4\xf1\xc9\xd7WH\x9a?'
p955
tp956
Rp957
sI61964944313
g3
(g47
S'\x96\x0c\xc6\xd3&\xc1\x82?'
p958
tp959
Rp960
sI61964979130
g3
(g47
S"\xfb\xef\x8f'Q\xc6u?"
p961
tp962
Rp963
sI61961024956
g3
(g47
S's\xe3%\xb2\xca_\x9a?'
p964
tp965
Rp966
sI61964979139
g3
(g47
S'\x03\xbd`HC\x7f\x82?'
p967
tp968
Rp969
sI61961024968
g3
(g47
S'\xc5\xde\xbai}\xfd\x98?'
p970
tp971
Rp972
sI61964979150
g3
(g47
S'}\x1e\xfc\x11\xc6\xaf\x81?'
p973
tp974
Rp975
sI61964979153
g3
(g47
S'Xy\x813\x9f\xa0\x80?'
p976
tp977
Rp978
sI61964979154
g3
(g47
S'U\xa2\x9f\x83\x06r\x82?'
p979
tp980
Rp981
sg39
g3
(g47
S']\x13C\xf8\x8e\xb1\x8a?'
p982
tp983
Rp984
sI61964979158
g3
(g47
S'\xe0\xf9\x05\xe7\x9f\xca\x80?'
p985
tp986
Rp987
sI61960619991
g3
(g47
S't\xb15\xbc\x84\xa7\xa0?'
p988
tp989
Rp990
sI61964979163
g3
(g47
S'\x97\x1a\x02\xc8"\x98\x81?'
p991
tp992
Rp993
sI61964944350
g3
(g47
S'?\n\x90J\x16K\x81?'
p994
tp995
Rp996
sg42
g3
(g47
S'\xde\x90\xa9\xe0\x0b\xf9x?'
p997
tp998
Rp999
sI413787380563
g3
(g47
S')6\x96<,\xb8\x89?'
p1000
tp1001
Rp1002
ssS'avg_cl'
p1003
(dp1004
I61961025033
F0.018753011969726088
sI61961025054
F0.011099477282530005
sI61960946207
F0.015086945454889596
sI61961025059
F0.02017792886399457
sI61960946218
F0.011397518080153386
sg12
F0.0011488275302355912
sI61961025073
F0.0016075071228461503
sI61964961871
F0.0005407566681656454
sg15
F0.0004552400865977947
sI61965020015
F0.0011075049397349715
sg18
F0.000268686445083042
sI61964943979
F0.0002259007158715474
sI61964943982
F0.0004033551663016539
sI61964943984
F0.0011991100451731885
sI61964943986
F0.0007408583412428573
sI61964943996
F0.0011595334882606291
sI61964961925
F0.00034601944086543545
sI413791240838
F0.013216302729538856
sI61964961927
F0.0002976216405937871
sI61964972168
F0.0012675225677279502
sI61964944011
F0.00031444055472264676
sI61964944018
F0.0007577701174981319
sI61961024963
F0.01480783780117765
sI61964944027
F0.0010241369330476172
sI61964944035
F0.0012158481479798108
sI61964944038
F0.0010957245639581987
sI61960946349
F0.004502563515630862
sI61964944046
F0.001329183633941518
sI61961025202
F0.004504285584551266
sI14720303796
F0.0
sI61964944053
F0.00026564495385749076
sI61964944054
F0.0013254765937969547
sI61964944057
F0.0002985375548690398
sg21
F0.0004116438925090488
sI61961078559
F0.002254507885846957
sI61964944064
F0.0009951911990428938
sI61964944067
F0.00026172879969040984
sI61961024887
F0.01134041631180709
sI61961353423
F0.014757197055448961
sI61965359909
F0.0008742140670214816
sI413791240929
F0.005765595043688802
sI61964944337
F0.001109428743914606
sI61961078506
F0.020430392964693032
sI61964944341
F0.000488196516204787
sI61965359883
F0.00025240881511058783
sI61965359903
F0.0011549961914426499
sI61961263393
F0.0
sI61961078565
F0.013202453496996266
sI61961078566
F0.002383160467347858
sI61961078573
F0.012739226124215268
sI61965359920
F0.0014143405315499313
sI61965019959
F0.00023951474956969665
sI61961024824
F0.013794393902846796
sI61965019962
F0.00038921027434708956
sI61965359937
F0.00033672490869206034
sI61961078595
F0.007728973650020098
sI61965359944
F0.0013303730548811172
sI61965359948
F0.0011818421207559617
sI61965019982
F0.0008207435581920318
sI61965019983
F0.001173338367499582
sg24
F0.007568146847110906
sI61965019987
F0.0004990927477752665
sI61961024853
F0.010672052980028714
sI61965019992
F0.0009211447528615481
sI61965019994
F0.00026346759175304346
sI61961078619
F0.0
sI61965019996
F0.0003815662050370792
sg27
F0.0006202282217221797
sI61961024868
F0.013174170412569188
sI61965020009
F0.00028821482688805983
sI61965359983
F0.000868527674917918
sI61961024881
F0.0013536325619744652
sI61965020019
F0.0007665113282287057
sg30
F0.01702423857532124
sI61965020021
F0.0012623337071637664
sg33
F0.0
sI61965359991
F0.0029456631455157165
sg36
F0.00022639011406142898
sI61961024891
F0.017518136288119886
sI61965020029
F0.0003250004380769288
sI61961024911
F0.005950713230184084
sI61961024912
F0.007136596336531564
sI61961024927
F0.007705959452084802
sI61961024929
F0.02818657644256812
sI61961024937
F0.013539391496566201
sI61961024938
F0.006878604085995696
sI61961024943
F0.012122564596859463
sI61965360050
F0.0006810366702433271
sI61961024950
F0.0006241747908757413
sI61961024951
F0.00819386093954857
sI61964944313
F0.0012022801192215563
sI61964979130
F0.0003526985747314167
sI61961024956
F0.007863635438006568
sI61964979139
F0.0011780614825978224
sI61961024968
F0.007122411116622702
sI61964979150
F0.0011066056588630556
sI61964979153
F0.0008233859170756579
sI61964979154
F0.0011390820267947258
sg39
F0.0019847620833707653
sI61964979158
F0.0009393405613377998
sI61960619991
F0.013539490703859541
sI61964979163
F0.0009739046899203066
sI61964944350
F0.0010964993397760186
sg42
F0.0003119365340424661
sI413787380563
F0.0017678991300563423
ssS'agg_bt'
p1005
(dp1006
I61961025033
F0.016149685679918507
sI61961025054
F0.002800984158126569
sI61960946207
F0.0006310731661144059
sI61961025059
F0.01984839895908778
sI61960946218
F0.012490559583924992
sg12
F0.004291006214246933
sI61961025073
F0.002207116579387248
sI61964961871
F0.0003826995870462514
sg15
F0.0
sI61965020015
F0.0009649761558876282
sg18
F0.0
sI61964943979
F5.834578043315908e-06
sI61964943982
F1.945834214612958e-05
sI61964943984
F0.0029219692357002236
sI61964943986
F0.0003328106433445478
sI61964943996
F0.0043600925995027654
sI61964961925
F7.312671147622604e-05
sI413791240838
F0.007281905675910558
sI61964961927
F0.0
sI61964972168
F0.003387031883074656
sI61964944011
F7.542349775359485e-05
sI61964944018
F0.002263030137252665
sI61961024963
F0.0008753924914404251
sI61964944027
F0.0016558844608720012
sI61964944035
F0.002112838786018344
sI61964944038
F0.004463420884942902
sI61960946349
F0.0006998252663064122
sI61964944046
F0.0026145456994308702
sI61961025202
F0.005822101965316955
sI14720303796
F0.0
sI61964944053
F0.0003119633824990172
sI61964944054
F0.0017477404866142014
sI61964944057
F0.0
sg21
F0.0011764697398372525
sI61961078559
F0.0024690212322005137
sI61964944064
F0.0009600747801740612
sI61964944067
F0.0
sI61961024887
F0.0011532057938512814
sI61961353423
F0.10833426225517918
sI61965359909
F0.0015222940795784536
sI413791240929
F0.009605421328651075
sI61964944337
F0.004777853758051355
sI61961078506
F0.03666812795285817
sI61964944341
F9.876180992685848e-05
sI61965359883
F1.8670649738610905e-05
sI61965359903
F0.004874173166547404
sI61961263393
F0.0
sI61961078565
F0.023969374682288422
sI61961078566
F6.0709954163694884e-05
sI61961078573
F0.06848863875004223
sI61965359920
F0.005351651701857134
sI61965019959
F0.0
sI61961024824
F0.0010681052216108965
sI61965019962
F3.058733337859551e-05
sI61965359937
F1.5558874782175753e-05
sI61961078595
F0.0005039606736611395
sI61965359944
F0.0008993136933651477
sI61965359948
F0.0011123948616689376
sI61965019982
F0.003084186386654902
sI61965019983
F0.0015066132279825738
sg24
F0.0004745185330706921
sI61965019987
F0.00018922695275310438
sI61961024853
F0.0012041381462166323
sI61965019992
F0.0012353320578566787
sI61965019994
F0.0
sI61961078619
F0.0
sI61965019996
F0.001030778644076507
sg27
F6.31325399993059e-05
sI61961024868
F0.0040039210618839334
sI61965020009
F1.5558874782175753e-05
sI61965359983
F0.00312244350088099
sI61961024881
F0.0050793346083400125
sI61965020019
F0.001216802599862402
sg30
F0.1003577185891802
sI61965020021
F0.0011070860809994552
sg33
F0.0
sI61965359991
F0.008317547323143468
sg36
F8.401792382374907e-05
sI61961024891
F0.0042313903168867345
sI61965020029
F0.0003390162315284274
sI61961024911
F0.0008511802317988793
sI61961024912
F0.005250495079716858
sI61961024927
F0.0007075115388805565
sI61961024929
F0.16947471129123173
sI61961024937
F0.003489470392599894
sI61961024938
F0.0002552958974497926
sI61961024943
F0.016485019611148424
sI61965360050
F0.0007342774650356976
sI61961024950
F0.0006955474805679473
sI61961024951
F0.004989053129057175
sI61964944313
F0.0011315695839533707
sI61964979130
F3.4229524520786655e-05
sI61961024956
F0.000980594150057228
sI61964979139
F0.0010182068091203417
sI61961024968
F0.0004883989449482099
sI61964979150
F0.0012288356217003533
sI61964979153
F0.0002517723140026174
sI61964979154
F0.0023134884506305665
sg39
F0.00591849201959469
sI61964979158
F0.0030166215768213512
sI61960619991
F0.00323262953179652
sI61964979163
F0.000816814135453584
sI61964944350
F0.0008028469239415619
sg42
F0.0010152330230283311
sI413787380563
F0.0005758382590368958
ssS'agg_deg'
p1007
(dp1008
I61961025033
F0.46153846153846156
sI61961025054
F0.27884615384615385
sI61960946207
F0.22115384615384617
sI61961025059
F0.5192307692307693
sI61960946218
F0.38461538461538464
sg12
F0.40384615384615385
sI61961025073
F0.21153846153846156
sI61964961871
F0.1826923076923077
sg15
F0.057692307692307696
sI61965020015
F0.22115384615384617
sg18
F0.038461538461538464
sI61964943979
F0.04807692307692308
sI61964943982
F0.06730769230769232
sI61964943984
F0.38461538461538464
sI61964943986
F0.13461538461538464
sI61964943996
F0.3653846153846154
sI61964961925
F0.057692307692307696
sI413791240838
F0.33653846153846156
sI61964961927
F0.038461538461538464
sI61964972168
F0.40384615384615385
sI61964944011
F0.057692307692307696
sI61964944018
F0.25961538461538464
sI61961024963
F0.25961538461538464
sI61964944027
F0.2884615384615385
sI61964944035
F0.3269230769230769
sI61964944038
F0.42307692307692313
sI61960946349
F0.22115384615384617
sI61964944046
F0.375
sI61961025202
F0.125
sI14720303796
F0.0
sI61964944053
F0.04807692307692308
sI61964944054
F0.2884615384615385
sI61964944057
F0.038461538461538464
sg21
F0.125
sI61961078559
F0.04807692307692308
sI61964944064
F0.2692307692307693
sI61964944067
F0.038461538461538464
sI61961024887
F0.22115384615384617
sI61961353423
F0.8365384615384616
sI61965359909
F0.27884615384615385
sI413791240929
F0.3653846153846154
sI61964944337
F0.2692307692307693
sI61961078506
F0.5961538461538461
sI61964944341
F0.06730769230769232
sI61965359883
F0.04807692307692308
sI61965359903
F0.40384615384615385
sI61961263393
F0.0
sI61961078565
F0.5480769230769231
sI61961078566
F0.10576923076923078
sI61961078573
F0.6923076923076923
sI61965359920
F0.2884615384615385
sI61965019959
F0.028846153846153848
sI61961024824
F0.3076923076923077
sI61965019962
F0.057692307692307696
sI61965359937
F0.04807692307692308
sI61961078595
F0.13461538461538464
sI61965359944
F0.21153846153846156
sI61965359948
F0.25
sI61965019982
F0.25
sI61965019983
F0.25961538461538464
sg24
F0.22115384615384617
sI61965019987
F0.08653846153846154
sI61961024853
F0.3076923076923077
sI61965019992
F0.25
sI61965019994
F0.028846153846153848
sI61961078619
F0.0
sI61965019996
F0.11538461538461539
sg27
F0.07692307692307693
sI61961024868
F0.31730769230769235
sI61965020009
F0.04807692307692308
sI61965359983
F0.3076923076923077
sI61961024881
F0.06730769230769232
sI61965020019
F0.21153846153846156
sg30
F0.826923076923077
sI61965020021
F0.2403846153846154
sg33
F0.0
sI61965359991
F0.25961538461538464
sg36
F0.038461538461538464
sI61961024891
F0.2403846153846154
sI61965020029
F0.08653846153846154
sI61961024911
F0.2692307692307693
sI61961024912
F0.3269230769230769
sI61961024927
F0.2403846153846154
sI61961024929
F0.9038461538461539
sI61961024937
F0.33653846153846156
sI61961024938
F0.22115384615384617
sI61961024943
F0.44230769230769235
sI61965360050
F0.19230769230769232
sI61961024950
F0.10576923076923078
sI61961024951
F0.22115384615384617
sI61964944313
F0.23076923076923078
sI61964979130
F0.04807692307692308
sI61961024956
F0.21153846153846156
sI61964979139
F0.22115384615384617
sI61961024968
F0.20192307692307693
sI61964979150
F0.25961538461538464
sI61964979153
F0.09615384615384616
sI61964979154
F0.2692307692307693
sg39
F0.11538461538461539
sI61964979158
F0.2980769230769231
sI61960619991
F0.2692307692307693
sI61964979163
F0.19230769230769232
sI61964944350
F0.21153846153846156
sg42
F0.125
sI413787380563
F0.21153846153846156
ss.