(dp0
S'agg_cl'
p1
(dp2
I61961025033
F0.5470085470085471
sI61961025054
F0.5274725274725275
sI61960946207
F0.5182186234817814
sI61961025059
F0.5338276181649676
sI61960946218
F0.5274725274725275
scnumpy.core.multiarray
scalar
p3
(cnumpy
dtype
p4
(S'i8'
p5
I0
I1
tp6
Rp7
(I3
S'<'
p8
NNNI-1
I-1
I0
tp9
bS'\xb2\x02fm\x0e\x00\x00\x00'
p10
tp11
Rp12
F0.463954893274265
sI61961025073
F0.5063736263736264
sI61964961871
F0.45443786982248524
sg3
(g7
S'\xba%\x8cW`\x00\x00\x00'
p13
tp14
Rp15
F0.4713584288052373
sI61965020015
F0.45443786982248524
sg3
(g7
S'\xd5\x8bfm\x0e\x00\x00\x00'
p16
tp17
Rp18
F0.45443786982248524
sI61964943979
F0.4663967611336033
sI61964943982
F0.0
sI61964943984
F0.45443786982248524
sI61964943986
F0.463954893274265
sI61964943996
F0.4591470705460343
sI61964961925
F0.45443786982248524
sI413791240838
F0.5470085470085471
sI61964961927
F0.4591470705460343
sI61964972168
F0.45443786982248524
sI61964944011
F0.45443786982248524
sI61964944018
F0.4591470705460343
sI61961024963
F0.5274725274725275
sI61964944027
F0.463954893274265
sI61964944035
F0.45443786982248524
sI61964944038
F0.4591470705460343
sI61960946349
F0.5092838196286472
sI61964944046
F0.463954893274265
sI61961025202
F0.4842370744010089
sI14720303796
F0.0
sI61964944053
F0.4591470705460343
sI61964944054
F0.45443786982248524
sI61964944057
F0.45443786982248524
sg3
(g7
S'\xba\x02fm\x0e\x00\x00\x00'
p19
tp20
Rp21
F0.463954893274265
sI61961078559
F0.46886446886446886
sI61964944064
F0.45443786982248524
sI61964944067
F0.45443786982248524
sI61961024887
F0.5212669683257919
sI61961353423
F0.5338276181649676
sI61965359909
F0.0
sI413791240929
F0.4895877603059924
sI61964944337
F0.4591470705460343
sI61961078506
F0.6028257456828885
sI61964944341
F0.463954893274265
sI61965359883
F0.45443786982248524
sI61965359903
F0.0
sI61961263393
F0.0
sI61961078565
F0.5504061156235069
sI61961078566
F0.4842370744010089
sI61961078573
F0.5573294629898403
sI61965359920
F0.4713584288052373
sI61965019959
F0.45443786982248524
sI61961024824
F0.5338276181649676
sI61965019962
F0.46886446886446886
sI61965359937
F0.4663967611336033
sI61961078595
F0.48689771766694845
sI61965359944
F0.45443786982248524
sI61965359948
F0.4591470705460343
sI61965019982
F0.0
sI61965019983
F0.45443786982248524
sg3
(g7
S'R\x07+m\x0e\x00\x00\x00'
p22
tp23
Rp24
F0.5122276567363272
sI61965019987
F0.45443786982248524
sI61961024853
F0.5370629370629371
sI61965019992
F0.46153846153846156
sI61965019994
F0.45443786982248524
sI61961078619
F0.0
sI61965019996
F0.4738790621143563
sg3
(g7
S'`[lm\x0e\x00\x00\x00'
p25
tp26
Rp27
F0.45443786982248524
sI61961024868
F0.5274725274725275
sI61965020009
F0.45443786982248524
sI61965359983
F0.45443786982248524
sI61961024881
F0.4738790621143563
sI61965020019
F0.45443786982248524
sg3
(g7
S't5*m\x0e\x00\x00\x00'
p28
tp29
Rp30
F0.5987525987525988
sI61965020021
F0.463954893274265
sg3
(g7
S'v5*m\x0e\x00\x00\x00'
p31
tp32
Rp33
F0.0
sI61965359991
F0.47900207900207903
sg3
(g7
S'x5*m\x0e\x00\x00\x00'
p34
tp35
Rp36
F0.32459847844463235
sI61961024891
F0.4475524475524476
sI61965020029
F0.3646723646723647
sI61961024911
F0.5274725274725275
sI61961024912
F0.5436526663520529
sI61961024927
F0.5212669683257919
sI61961024929
F0.8861538461538462
sI61961024937
F0.5436526663520529
sI61961024938
F0.5092838196286472
sI61961024943
F0.5122276567363272
sI61965360050
F0.4591470705460343
sI61961024950
F0.36022514071294565
sI61961024951
F0.5034965034965034
sI61964944313
F0.45443786982248524
sI61964979130
F0.4591470705460343
sI61961024956
F0.5122276567363272
sI61964979139
F0.463954893274265
sI61961024968
F0.5034965034965034
sI61964979150
F0.45443786982248524
sI61964979153
F0.463954893274265
sI61964979154
F0.45443786982248524
sg3
(g7
S'N\x07+m\x0e\x00\x00\x00'
p37
tp38
Rp39
F0.47900207900207903
sI61964979158
F0.4591470705460343
sI61960619991
F0.5034965034965034
sI61964979163
F0.45443786982248524
sI61964944350
F0.463954893274265
sg3
(g7
S'\xf2\x03fm\x0e\x00\x00\x00'
p40
tp41
Rp42
F0.4663967611336033
sI413787380563
F0.4713584288052373
ssS't_deg'
p43
(dp44
I61961025033
g3
(g4
(S'f8'
p45
I0
I1
tp46
Rp47
(I3
S'<'
p48
NNNI-1
I-1
I0
tp49
bS'\x92\x81s\x92\x81s\x92?'
p50
tp51
Rp52
sI61961025054
g3
(g47
S'\x11\x0e\xe1\x10\x0e\xe1\x80?'
p53
tp54
Rp55
sI61960946207
g3
(g47
S'\x1dMJ\x1dMJ\x8d?'
p56
tp57
Rp58
sI61961025059
g3
(g47
S'\x91\x99 \x91\x99 \x91?'
p59
tp60
Rp61
sI61960946218
g3
(g47
S'\x11\xc85\x11\xc85\x81?'
p62
tp63
Rp64
sg12
g3
(g47
S' \xc0\xc5\x1f\xc0\xc5/?'
p65
tp66
Rp67
sI61961025073
g3
(g47
S'\x17h\x81\x16h\x81f?'
p68
tp69
Rp70
sI61964961871
g3
(g47
S'\x15\x80.\x15\x80.\x15?'
p71
tp72
Rp73
sg15
g3
(g47
S'\x15\x80.\x15\x80.E?'
p74
tp75
Rp76
sI61965020015
g3
(g47
S'\x15\x80.\x15\x80.\x15?'
p77
tp78
Rp79
sg18
g3
(g47
S'\x15\x80.\x15\x80.\x15?'
p80
tp81
Rp82
sI61964943979
g3
(g47
S'\x15\x80.\x15\x80.5?'
p83
tp84
Rp85
sI61964943982
g3
(g47
S'\x00\x00\x00\x00\x00\x00\x00\x00'
p86
tp87
Rp88
sI61964943984
g3
(g47
S'\x15\x80.\x15\x80.\x15?'
p89
tp90
Rp91
sI61964943986
g3
(g47
S' \xc0\xc5\x1f\xc0\xc5/?'
p92
tp93
Rp94
sI61964943996
g3
(g47
S'\x15\x80.\x15\x80.%?'
p95
tp96
Rp97
sI61964961925
g3
(g47
S'\x15\x80.\x15\x80.\x15?'
p98
tp99
Rp100
sI413791240838
g3
(g47
S'\x1e\xd8r\x1e\xd8r\x8e?'
p101
tp102
Rp103
sI61964961927
g3
(g47
S'\x15\x80.\x15\x80.%?'
p104
tp105
Rp106
sI61964972168
g3
(g47
S'\x15\x80.\x15\x80.\x15?'
p107
tp108
Rp109
sI61964944011
g3
(g47
S'\x15\x80.\x15\x80.\x15?'
p110
tp111
Rp112
sI61964944018
g3
(g47
S'\x15\x80.\x15\x80.%?'
p113
tp114
Rp115
sI61961024963
g3
(g47
S'\x19~\xd2\x18~\xd2\x88?'
p116
tp117
Rp118
sI61964944027
g3
(g47
S' \xc0\xc5\x1f\xc0\xc5/?'
p119
tp120
Rp121
sI61964944035
g3
(g47
S'\x15\x80.\x15\x80.\x15?'
p122
tp123
Rp124
sI61964944038
g3
(g47
S'\x15\x80.\x15\x80.%?'
p125
tp126
Rp127
sI61960946349
g3
(g47
S'\x14\x98\xdb\x13\x98\xdbs?'
p128
tp129
Rp130
sI61964944046
g3
(g47
S' \xc0\xc5\x1f\xc0\xc5/?'
p131
tp132
Rp133
sI61961025202
g3
(g47
S'\x15\xc6\xd9\x14\xc6\xd9t?'
p134
tp135
Rp136
sI14720303796
g3
(g47
S'\x00\x00\x00\x00\x00\x00\x00\x00'
p137
tp138
Rp139
sI61964944053
g3
(g47
S'\x15\x80.\x15\x80.%?'
p140
tp141
Rp142
sI61964944054
g3
(g47
S'\x15\x80.\x15\x80.\x15?'
p143
tp144
Rp145
sI61964944057
g3
(g47
S'\x15\x80.\x15\x80.\x15?'
p146
tp147
Rp148
sg21
g3
(g47
S' \xc0\xc5\x1f\xc0\xc5/?'
p149
tp150
Rp151
sI61961078559
g3
(g47
S'\x12<\xdf\x11<\xdfa?'
p152
tp153
Rp154
sI61964944064
g3
(g47
S'\x15\x80.\x15\x80.\x15?'
p155
tp156
Rp157
sI61964944067
g3
(g47
S'\x15\x80.\x15\x80.\x15?'
p158
tp159
Rp160
sI61961024887
g3
(g47
S'\x18\xc4}\x18\xc4}\x88?'
p161
tp162
Rp163
sI61961353423
g3
(g47
S'\x1ce\xf7\x1be\xf7\x8b?'
p164
tp165
Rp166
sI61965359909
g3
(g47
S'\x00\x00\x00\x00\x00\x00\x00\x00'
p167
tp168
Rp169
sI413791240929
g3
(g47
S'\x12<\xdf\x11<\xdfa?'
p170
tp171
Rp172
sI61964944337
g3
(g47
S'\x15\x80.\x15\x80.%?'
p173
tp174
Rp175
sI61961078506
g3
(g47
S'\x16\xae,\x16\xae,\x96?'
p176
tp177
Rp178
sI61964944341
g3
(g47
S'\x1a z\x1a z:?'
p179
tp180
Rp181
sI61965359883
g3
(g47
S'\x15\x80.\x15\x80.\x15?'
p182
tp183
Rp184
sI61965359903
g3
(g47
S'\x00\x00\x00\x00\x00\x00\x00\x00'
p185
tp186
Rp187
sI61961263393
g3
(g47
S'\x00\x00\x00\x00\x00\x00\x00\x00'
p188
tp189
Rp190
sI61961078565
g3
(g47
S' c\x9b\x1fc\x9b\x8f?'
p191
tp192
Rp193
sI61961078566
g3
(g47
S'\x18\xc4}\x18\xc4}h?'
p194
tp195
Rp196
sI61961078573
g3
(g47
S'\x1d6\xcb\x1c6\xcb\x8c?'
p197
tp198
Rp199
sI61965359920
g3
(g47
S' \xc0\xc5\x1f\xc0\xc5??'
p200
tp201
Rp202
sI61965019959
g3
(g47
S'\x15\x80.\x15\x80.\x15?'
p203
tp204
Rp205
sI61961024824
g3
(g47
S'\x1d\xd9\xa0\x1c\xd9\xa0\x8c?'
p206
tp207
Rp208
sI61965019962
g3
(g47
S'\x1a z\x1a z:?'
p209
tp210
Rp211
sI61965359937
g3
(g47
S'\x15\x80.\x15\x80.5?'
p212
tp213
Rp214
sI61961078595
g3
(g47
S'\x1b\x94#\x1b\x94#k?'
p215
tp216
Rp217
sI61965359944
g3
(g47
S'\x15\x80.\x15\x80.\x15?'
p218
tp219
Rp220
sI61965359948
g3
(g47
S'\x15\x80.\x15\x80.%?'
p221
tp222
Rp223
sI61965019982
g3
(g47
S'\x00\x00\x00\x00\x00\x00\x00\x00'
p224
tp225
Rp226
sI61965019983
g3
(g47
S'\x15\x80.\x15\x80.\x15?'
p227
tp228
Rp229
sg24
g3
(g47
S'\x1f\x06q\x1f\x06q\x7f?'
p230
tp231
Rp232
sI61965019987
g3
(g47
S'\x15\x80.\x15\x80.\x15?'
p233
tp234
Rp235
sI61961024853
g3
(g47
S'\x14\xf5\x05\x14\xf5\x05\x84?'
p236
tp237
Rp238
sI61965019992
g3
(g47
S'\x15\x80.\x15\x80.%?'
p239
tp240
Rp241
sI61965019994
g3
(g47
S'\x15\x80.\x15\x80.\x15?'
p242
tp243
Rp244
sI61961078619
g3
(g47
S'\x00\x00\x00\x00\x00\x00\x00\x00'
p245
tp246
Rp247
sI61965019996
g3
(g47
S'\x13\xb0\x88\x12\xb0\x88B?'
p248
tp249
Rp250
sg27
g3
(g47
S'\x15\x80.\x15\x80.\x15?'
p251
tp252
Rp253
sI61961024868
g3
(g47
S'\x179U\x179U\x87?'
p254
tp255
Rp256
sI61965020009
g3
(g47
S'\x15\x80.\x15\x80.\x15?'
p257
tp258
Rp259
sI61965359983
g3
(g47
S'\x15\x80.\x15\x80.\x15?'
p260
tp261
Rp262
sI61961024881
g3
(g47
S'\x13\xb0\x88\x12\xb0\x88b?'
p263
tp264
Rp265
sI61965020019
g3
(g47
S'\x15\x80.\x15\x80.\x15?'
p266
tp267
Rp268
sg30
g3
(g47
S'\x14\x98\xdb\x13\x98\xdb\x93?'
p269
tp270
Rp271
sI61965020021
g3
(g47
S' \xc0\xc5\x1f\xc0\xc5/?'
p272
tp273
Rp274
sg33
g3
(g47
S'\x00\x00\x00\x00\x00\x00\x00\x00'
p275
tp276
Rp277
sI61965359991
g3
(g47
S'\x15\x0c\x85\x14\x0c\x85d?'
p278
tp279
Rp280
sg36
g3
(g47
S'\x15\x80.\x15\x80.E?'
p281
tp282
Rp283
sI61961024891
g3
(g47
S'\x1f\x92\xc7\x1e\x92\xc7\x8e?'
p284
tp285
Rp286
sI61965020029
g3
(g47
S'\x15\x80.\x15\x80.\x15?'
p287
tp288
Rp289
sI61961024911
g3
(g47
S'\x18\n)\x18\n)x?'
p290
tp291
Rp292
sI61961024912
g3
(g47
S' \xc0\xc5\x1f\xc0\xc5\x7f?'
p293
tp294
Rp295
sI61961024927
g3
(g47
S'\x17\xdc*\x17\xdc*w?'
p296
tp297
Rp298
sI61961024929
g3
(g47
S'\x95:\x9a\x94:\x9a\xa4?'
p299
tp300
Rp301
sI61961024937
g3
(g47
S'\x1e\xd8r\x1e\xd8r\x8e?'
p302
tp303
Rp304
sI61961024938
g3
(g47
S'\x1c\x08\xcd\x1b\x08\xcd{?'
p305
tp306
Rp307
sI61961024943
g3
(g47
S'\x15\xc6\xd9\x14\xc6\xd9\x84?'
p308
tp309
Rp310
sI61965360050
g3
(g47
S'\x15\x80.\x15\x80.%?'
p311
tp312
Rp313
sI61961024950
g3
(g47
S'\x1a z\x1a z:?'
p314
tp315
Rp316
sI61961024951
g3
(g47
S'\x1c\x08\xcd\x1b\x08\xcd{?'
p317
tp318
Rp319
sI61964944313
g3
(g47
S'\x15\x80.\x15\x80.\x15?'
p320
tp321
Rp322
sI61964979130
g3
(g47
S'\x15\x80.\x15\x80.%?'
p323
tp324
Rp325
sI61961024956
g3
(g47
S'\x1b\x94#\x1b\x94#{?'
p326
tp327
Rp328
sI61964979139
g3
(g47
S' \xc0\xc5\x1f\xc0\xc5/?'
p329
tp330
Rp331
sI61961024968
g3
(g47
S'\x1af%\x1af%z?'
p332
tp333
Rp334
sI61964979150
g3
(g47
S'\x15\x80.\x15\x80.\x15?'
p335
tp336
Rp337
sI61964979153
g3
(g47
S'\x1a z\x1a z:?'
p338
tp339
Rp340
sI61964979154
g3
(g47
S'\x15\x80.\x15\x80.\x15?'
p341
tp342
Rp343
sg39
g3
(g47
S'\x15\x0c\x85\x14\x0c\x85d?'
p344
tp345
Rp346
sI61964979158
g3
(g47
S'\x15\x80.\x15\x80.%?'
p347
tp348
Rp349
sI61960619991
g3
(g47
S'\x17h\x81\x16h\x81\x86?'
p350
tp351
Rp352
sI61964979163
g3
(g47
S'\x15\x80.\x15\x80.\x15?'
p353
tp354
Rp355
sI61964944350
g3
(g47
S' \xc0\xc5\x1f\xc0\xc5/?'
p356
tp357
Rp358
sg42
g3
(g47
S'\x15\x80.\x15\x80.5?'
p359
tp360
Rp361
sI413787380563
g3
(g47
S'\x1a z\x1a zJ?'
p362
tp363
Rp364
ssS'avg_bt'
p365
(dp366
I61961025033
F0.001351618658599092
sI61961025054
F0.0007154146189632498
sI61960946207
F0.0010867029121169357
sI61961025059
F0.0007239304871364187
sI61960946218
F0.0003301488918653211
sg12
F2.9315349056970595e-06
sI61961025073
F0.00017671524085625994
sI61964961871
F0.0
sg15
F1.5780718429688087e-06
sI61965020015
F0.0
sg18
F0.0
sI61964943979
F1.036272118945374e-05
sI61964943982
F0.0
sI61964943984
F0.0
sI61964943986
F2.9315349056970595e-06
sI61964943996
F0.0
sI61964961925
F0.0
sI413791240838
F0.0010474706562345255
sI61964961927
F1.967688367385435e-06
sI61964972168
F0.0
sI61964944011
F0.0
sI61964944018
F1.6638292991468282e-06
sI61961024963
F0.0017145138552910814
sI61964944027
F2.9315349056970595e-06
sI61964944035
F0.0
sI61964944038
F2.710597419033789e-06
sI61960946349
F0.00021630730224903074
sI61964944046
F2.9315349056970595e-06
sI61961025202
F0.0004018368498869438
sI14720303796
F0.0
sI61964944053
F1.0537629857202343e-05
sI61964944054
F0.0
sI61964944057
F0.0
sg21
F2.9315349056970595e-06
sI61961078559
F0.00025843302899270914
sI61964944064
F0.0
sI61964944067
F0.0
sI61961024887
F0.0006604304374698278
sI61961353423
F0.0009793291923285655
sI61965359909
F0.0
sI413791240929
F0.00011369283584579058
sI61964944337
F1.0537629857202343e-05
sI61961078506
F0.0012473438009427446
sI61964944341
F4.082107158496611e-06
sI61965359883
F0.0
sI61965359903
F0.0
sI61961263393
F0.0
sI61961078565
F0.0009305309384841042
sI61961078566
F0.00012900205718232856
sI61961078573
F0.0008448955715745576
sI61965359920
F7.267959564961101e-06
sI61965019959
F0.0
sI61961024824
F0.0018623190084764852
sI61965019962
F1.6494357028692335e-05
sI61965359937
F3.975485735970787e-06
sI61961078595
F0.00010596978161302364
sI61965359944
F0.0
sI61965359948
F0.0
sI61965019982
F0.0
sI61965019983
F0.0
sg24
F0.000393044567395383
sI61965019987
F0.0
sI61961024853
F0.0005797721089854151
sI61965019992
F0.0
sI61965019994
F0.0
sI61961078619
F0.0
sI61965019996
F2.962252208339173e-05
sg27
F0.0
sI61961024868
F0.0011564990509471383
sI61965020009
F0.0
sI61965359983
F0.0
sI61961024881
F0.0001362743821134945
sI61965020019
F0.0
sg30
F0.0010233645782474594
sI61965020021
F2.9315349056970595e-06
sg33
F0.0
sI61965359991
F6.560944698335578e-05
sg36
F0.0
sI61961024891
F0.00039611396911408
sI61965020029
F0.0
sI61961024911
F0.00030318663926052233
sI61961024912
F0.0006178910739278427
sI61961024927
F0.00028750766033387287
sI61961024929
F0.004771687579393213
sI61961024937
F0.0016545496157784614
sI61961024938
F0.0006404105119142958
sI61961024943
F0.0007179782704743346
sI61965360050
F0.0
sI61961024950
F7.501279883448057e-06
sI61961024951
F0.0015337009269048105
sI61964944313
F0.0
sI61964979130
F0.0
sI61961024956
F0.0002514024865794418
sI61964979139
F2.9315349056970595e-06
sI61961024968
F0.0003698085093607371
sI61964979150
F0.0
sI61964979153
F3.7565721943061087e-06
sI61964979154
F0.0
sg39
F8.442391825356662e-05
sI61964979158
F2.710597419033789e-06
sI61960619991
F0.0007122601864536944
sI61964979163
F0.0
sI61964944350
F2.9315349056970595e-06
sg42
F1.036272118945374e-05
sI413787380563
F1.882754595490175e-05
ssS't_bt'
p367
(dp368
I61961025033
g3
(g47
S'\xf8\xf0V\xa0A!\x0c@'
p369
tp370
Rp371
sI61961025054
g3
(g47
S'\x1e\x9f\x11\x95\x12\xe5\xf5?'
p372
tp373
Rp374
sI61960946207
g3
(g47
S'-\x1d^\x13\x0e*\xfc?'
p375
tp376
Rp377
sI61961025059
g3
(g47
S'L%\\\xf9\xff\\\x03@'
p378
tp379
Rp380
sI61960946218
g3
(g47
S'`\xdc\xb0\xb5-\xab\xea?'
p381
tp382
Rp383
sg12
g3
(g47
S'\x00\x00\x00\x00\x00\x00\x00\x00'
p384
tp385
Rp386
sI61961025073
g3
(g47
S'\x9f\xea\x04\xa9\xd4]\xe4?'
p387
tp388
Rp389
sI61964961871
g3
(g47
S'\x00\x00\x00\x00\x00\x00\x00\x00'
p390
tp391
Rp392
sg15
g3
(g47
S'\x13\xdbd\xbc\xd3\xc1b='
p393
tp394
Rp395
sI61965020015
g3
(g47
S'\x00\x00\x00\x00\x00\x00\x00\x00'
p396
tp397
Rp398
sg18
g3
(g47
S'\x00\x00\x00\x00\x00\x00\x00\x00'
p399
tp400
Rp401
sI61964943979
g3
(g47
S'\x00\x00\x00\x00\x00\x00\x00\x00'
p402
tp403
Rp404
sI61964943982
g3
(g47
S'\x00\x00\x00\x00\x00\x00\x00\x00'
p405
tp406
Rp407
sI61964943984
g3
(g47
S'\x00\x00\x00\x00\x00\x00\x00\x00'
p408
tp409
Rp410
sI61964943986
g3
(g47
S'\x00\x00\x00\x00\x00\x00\x00\x00'
p411
tp412
Rp413
sI61964943996
g3
(g47
S'\x00\x00\x00\x00\x00\x00\x00\x00'
p414
tp415
Rp416
sI61964961925
g3
(g47
S'\x00\x00\x00\x00\x00\x00\x00\x00'
p417
tp418
Rp419
sI413791240838
g3
(g47
S'V\x10\x0c\\B\xc4\x05@'
p420
tp421
Rp422
sI61964961927
g3
(g47
S'\x00\x00\x00\x00\x00\x00\x00\x00'
p423
tp424
Rp425
sI61964972168
g3
(g47
S'\x00\x00\x00\x00\x00\x00\x00\x00'
p426
tp427
Rp428
sI61964944011
g3
(g47
S'\x00\x00\x00\x00\x00\x00\x00\x00'
p429
tp430
Rp431
sI61964944018
g3
(g47
S'\x00\x00\x00\x00\x00\x00\x00\x00'
p432
tp433
Rp434
sI61961024963
g3
(g47
S'\x9dj\xbe\x06\xe1\xb6\n@'
p435
tp436
Rp437
sI61964944027
g3
(g47
S'\x00\x00\x00\x00\x00\x00\x00\x00'
p438
tp439
Rp440
sI61964944035
g3
(g47
S'\x00\x00\x00\x00\x00\x00\x00\x00'
p441
tp442
Rp443
sI61964944038
g3
(g47
S'\x00\x00\x00\x00\x00\x00\x00\x00'
p444
tp445
Rp446
sI61960946349
g3
(g47
S',\x9d\xf2\xa3>\xf6\xec?'
p447
tp448
Rp449
sI61964944046
g3
(g47
S'\x00\x00\x00\x00\x00\x00\x00\x00'
p450
tp451
Rp452
sI61961025202
g3
(g47
S'+U\xc9\xa7\x8c\x0e\xf9?'
p453
tp454
Rp455
sI14720303796
g3
(g47
S'\x00\x00\x00\x00\x00\x00\x00\x00'
p456
tp457
Rp458
sI61964944053
g3
(g47
S'\x00\x00\x00\x00\x00\x00\x00\x00'
p459
tp460
Rp461
sI61964944054
g3
(g47
S'\x00\x00\x00\x00\x00\x00\x00\x00'
p462
tp463
Rp464
sI61964944057
g3
(g47
S'\x00\x00\x00\x00\x00\x00\x00\x00'
p465
tp466
Rp467
sg21
g3
(g47
S'\x00\x00\x00\x00\x00\x00\x00\x00'
p468
tp469
Rp470
sI61961078559
g3
(g47
S'\xe8\xfa/\x87Eu\xe4?'
p471
tp472
Rp473
sI61964944064
g3
(g47
S'\x00\x00\x00\x00\x00\x00\x00\x00'
p474
tp475
Rp476
sI61964944067
g3
(g47
S'\x00\x00\x00\x00\x00\x00\x00\x00'
p477
tp478
Rp479
sI61961024887
g3
(g47
S':\x1a\x9b\x1b-\x1d\x13@'
p480
tp481
Rp482
sI61961353423
g3
(g47
S'\x92m\x1b\xa4\xd8~\x04@'
p483
tp484
Rp485
sI61965359909
g3
(g47
S'\x00\x00\x00\x00\x00\x00\x00\x00'
p486
tp487
Rp488
sI413791240929
g3
(g47
S'\x85\xfd<\xc5:k\xd2?'
p489
tp490
Rp491
sI61964944337
g3
(g47
S'\x00\x00\x00\x00\x00\x00\x00\x00'
p492
tp493
Rp494
sI61961078506
g3
(g47
S'\xbd\x18\xe5\x02\xa6\x7f\x11@'
p495
tp496
Rp497
sI61964944341
g3
(g47
S'\xea\xa8\xb5q\xb5\xae\xae?'
p498
tp499
Rp500
sI61965359883
g3
(g47
S'\x00\x00\x00\x00\x00\x00\x00\x00'
p501
tp502
Rp503
sI61965359903
g3
(g47
S'\x00\x00\x00\x00\x00\x00\x00\x00'
p504
tp505
Rp506
sI61961263393
g3
(g47
S'\x00\x00\x00\x00\x00\x00\x00\x00'
p507
tp508
Rp509
sI61961078565
g3
(g47
S'\xc7\x95\x8e\xa8\xd3h\r@'
p510
tp511
Rp512
sI61961078566
g3
(g47
S'\xa7\xdb0\xe4u\x91\xd7?'
p513
tp514
Rp515
sI61961078573
g3
(g47
S'\x16\xc2\x88\xb9\x11\x16\xfe?'
p516
tp517
Rp518
sI61965359920
g3
(g47
S'\x05HW\xc5x\xa9\xbd?'
p519
tp520
Rp521
sI61965019959
g3
(g47
S'\x00\x00\x00\x00\x00\x00\x00\x00'
p522
tp523
Rp524
sI61961024824
g3
(g47
S'\xc3\xa7e]\xe9\xf4\x0f@'
p525
tp526
Rp527
sI61965019962
g3
(g47
S'\x00\x00\x00\x00\x00\x00\x00\x00'
p528
tp529
Rp530
sI61965359937
g3
(g47
S'\x00\x00\x00\x00\x00\x00\x00\x00'
p531
tp532
Rp533
sI61961078595
g3
(g47
S'^\xe1\xd0\xcc#E\xe0?'
p534
tp535
Rp536
sI61965359944
g3
(g47
S'\x00\x00\x00\x00\x00\x00\x00\x00'
p537
tp538
Rp539
sI61965359948
g3
(g47
S'\x00\x00\x00\x00\x00\x00\x00\x00'
p540
tp541
Rp542
sI61965019982
g3
(g47
S'\x00\x00\x00\x00\x00\x00\x00\x00'
p543
tp544
Rp545
sI61965019983
g3
(g47
S'\x00\x00\x00\x00\x00\x00\x00\x00'
p546
tp547
Rp548
sg24
g3
(g47
S'FKu\xc1L\xd0\xd7?'
p549
tp550
Rp551
sI61965019987
g3
(g47
S'\x00\x00\x00\x00\x00\x00\x00\x00'
p552
tp553
Rp554
sI61961024853
g3
(g47
S'\xfa\xa6p=\x1e\xda\xfd?'
p555
tp556
Rp557
sI61965019992
g3
(g47
S'\x00\x00\x00\x00\x00\x00\x00\x00'
p558
tp559
Rp560
sI61965019994
g3
(g47
S'\x00\x00\x00\x00\x00\x00\x00\x00'
p561
tp562
Rp563
sI61961078619
g3
(g47
S'\x00\x00\x00\x00\x00\x00\x00\x00'
p564
tp565
Rp566
sI61965019996
g3
(g47
S'S`;\xebA\xdd\x8d?'
p567
tp568
Rp569
sg27
g3
(g47
S'\x00\x00\x00\x00\x00\x00\x00\x00'
p570
tp571
Rp572
sI61961024868
g3
(g47
S')\xd3\xe6\xbe&\xef\x02@'
p573
tp574
Rp575
sI61965020009
g3
(g47
S'\x00\x00\x00\x00\x00\x00\x00\x00'
p576
tp577
Rp578
sI61965359983
g3
(g47
S'\x00\x00\x00\x00\x00\x00\x00\x00'
p579
tp580
Rp581
sI61961024881
g3
(g47
S'\xbc\xe5\xdd\x8d\x12\x13\xe3?'
p582
tp583
Rp584
sI61965020019
g3
(g47
S'\x00\x00\x00\x00\x00\x00\x00\x00'
p585
tp586
Rp587
sg30
g3
(g47
S'D\xe0\x86%\x04\xce\n@'
p588
tp589
Rp590
sI61965020021
g3
(g47
S'\x00\x00\x00\x00\x00\x00\x00\x00'
p591
tp592
Rp593
sg33
g3
(g47
S'\x00\x00\x00\x00\x00\x00\x00\x00'
p594
tp595
Rp596
sI61965359991
g3
(g47
S'\x17\xa4\xdd\xe2\xe8\xa2\xe8?'
p597
tp598
Rp599
sg36
g3
(g47
S'\xf1\xd8\xd6<^y\xc7?'
p600
tp601
Rp602
sI61961024891
g3
(g47
S'u\xb6\xa3\xa0\xd8\x0b\xf9?'
p603
tp604
Rp605
sI61965020029
g3
(g47
S'\x00\x00\x00\x00\x00\x00\x00\x00'
p606
tp607
Rp608
sI61961024911
g3
(g47
S'Du\xb9L\xaa1\xe0?'
p609
tp610
Rp611
sI61961024912
g3
(g47
S'k\x06\xde\x12\x16\xa8\x04@'
p612
tp613
Rp614
sI61961024927
g3
(g47
S'\x9a\xf8\x9e\x18\x04\xa0\xd3?'
p615
tp616
Rp617
sI61961024929
g3
(g47
S'H\xb8\xcc[\xdf\xbf0@'
p618
tp619
Rp620
sI61961024937
g3
(g47
S'\x8d\x9a\x99\xabZ\xd7\x01@'
p621
tp622
Rp623
sI61961024938
g3
(g47
S'2&5\xf4\x0e\xe0\xe2?'
p624
tp625
Rp626
sI61961024943
g3
(g47
S'\xd92\xe93to\xf7?'
p627
tp628
Rp629
sI61965360050
g3
(g47
S'\x00\x00\x00\x00\x00\x00\x00\x00'
p630
tp631
Rp632
sI61961024950
g3
(g47
S'\x00\x00\x00\x00\x00\x00\x00\x00'
p633
tp634
Rp635
sI61961024951
g3
(g47
S'{\xf8\xb7Vy\xa3\n@'
p636
tp637
Rp638
sI61964944313
g3
(g47
S'\x00\x00\x00\x00\x00\x00\x00\x00'
p639
tp640
Rp641
sI61964979130
g3
(g47
S'\x00\x00\x00\x00\x00\x00\x00\x00'
p642
tp643
Rp644
sI61961024956
g3
(g47
S'\x8b6\xdd\xc5\xfc}\xfa?'
p645
tp646
Rp647
sI61964979139
g3
(g47
S'\x00\x00\x00\x00\x00\x00\x00\x00'
p648
tp649
Rp650
sI61961024968
g3
(g47
S'7\xdeF\xe1\x10,\xed?'
p651
tp652
Rp653
sI61964979150
g3
(g47
S'\x00\x00\x00\x00\x00\x00\x00\x00'
p654
tp655
Rp656
sI61964979153
g3
(g47
S'v\xf4\xca6\xf4\xca\x96?'
p657
tp658
Rp659
sI61964979154
g3
(g47
S'\x00\x00\x00\x00\x00\x00\x00\x00'
p660
tp661
Rp662
sg39
g3
(g47
S'\xbc\x8d\xfbo\xd2m\xc9?'
p663
tp664
Rp665
sI61964979158
g3
(g47
S'\x00\x00\x00\x00\x00\x00\x00\x00'
p666
tp667
Rp668
sI61960619991
g3
(g47
S'\xd3)\xdea\xb5\xb4\xf6?'
p669
tp670
Rp671
sI61964979163
g3
(g47
S'\x00\x00\x00\x00\x00\x00\x00\x00'
p672
tp673
Rp674
sI61964944350
g3
(g47
S'\x00\x00\x00\x00\x00\x00\x00\x00'
p675
tp676
Rp677
sg42
g3
(g47
S'\x00\x00\x00\x00\x00\x00\x00\x00'
p678
tp679
Rp680
sI413787380563
g3
(g47
S'|Y=\xc2\x13\xe9\xd7?'
p681
tp682
Rp683
ssS'avg_deg'
p684
(dp685
I61961025033
F0.018665158371040713
sI61961025054
F0.00824175824175824
sI61960946207
F0.014301874595992236
sI61961025059
F0.017049127343244982
sI61960946218
F0.008403361344537813
sg12
F0.00024240465416936006
sI61961025073
F0.0027472527472527483
sI61964961871
F8.08015513897867e-05
sg15
F0.0006464124111182936
sI61965020015
F8.08015513897867e-05
sg18
F8.08015513897867e-05
sI61964943979
F0.0003232062055591468
sI61964943982
F0.0
sI61964943984
F8.08015513897867e-05
sI61964943986
F0.00024240465416936006
sI61964943996
F0.0001616031027795734
sI61964961925
F8.08015513897867e-05
sI413791240838
F0.014867485455720749
sI61964961927
F0.0001616031027795734
sI61964972168
F8.08015513897867e-05
sI61964944011
F8.08015513897867e-05
sI61964944018
F0.0001616031027795734
sI61961024963
F0.012120232708467998
sI61964944027
F0.00024240465416936006
sI61964944035
F8.08015513897867e-05
sI61964944038
F0.0001616031027795734
sI61960946349
F0.0048480930833872
sI61964944046
F0.00024240465416936006
sI61961025202
F0.00557530704589528
sI14720303796
F0.0
sI61964944053
F0.0001616031027795734
sI61964944054
F8.08015513897867e-05
sI61964944057
F8.08015513897867e-05
sg21
F0.00024240465416936006
sI61961078559
F0.002181641887524241
sI61964944064
F8.08015513897867e-05
sI61964944067
F8.08015513897867e-05
sI61961024887
F0.011958629605688428
sI61961353423
F0.014301874595992243
sI61965359909
F0.0
sI413791240929
F0.0021816418875242405
sI61964944337
F0.0001616031027795734
sI61961078506
F0.02310924369747897
sI61964944341
F0.00040400775694893345
sI61965359883
F8.08015513897867e-05
sI61965359903
F0.0
sI61961263393
F0.0
sI61961078565
F0.016241111829347118
sI61961078566
F0.0029896574014221075
sI61961078573
F0.014705882352941175
sI61965359920
F0.0004848093083387201
sI61965019959
F8.08015513897867e-05
sI61961024824
F0.01430187459599224
sI61965019962
F0.00040400775694893345
sI61965359937
F0.0003232062055591468
sI61961078595
F0.003312863606981254
sI61965359944
F8.08015513897867e-05
sI61965359948
F0.0001616031027795734
sI61965019982
F0.0
sI61965019983
F8.08015513897867e-05
sg24
F0.007676147382029735
sI61965019987
F8.08015513897867e-05
sI61961024853
F0.009938590820943758
sI61965019992
F0.0001616031027795734
sI61965019994
F8.08015513897867e-05
sI61961078619
F0.0
sI61965019996
F0.0005656108597285068
sg27
F8.08015513897867e-05
sI61961024868
F0.011554621848739493
sI61965020009
F8.08015513897867e-05
sI61965359983
F8.08015513897867e-05
sI61961024881
F0.002262443438914027
sI61965020019
F8.08015513897867e-05
sg30
F0.019553975436328364
sI61965020021
F0.00024240465416936006
sg33
F0.0
sI61965359991
F0.0025048480930833874
sg36
F0.0006464124111182937
sI61961024891
F0.01519069166127988
sI61965020029
F8.08015513897867e-05
sI61961024911
F0.006544925662572723
sI61961024912
F0.008241758241758244
sI61961024927
F0.005656108597285066
sI61961024929
F0.043471234647705206
sI61961024937
F0.016806722689075633
sI61961024938
F0.007110536522301228
sI61961024943
F0.010180995475113117
sI61965360050
F0.0001616031027795734
sI61961024950
F0.00040400775694893345
sI61961024951
F0.006787330316742077
sI61964944313
F8.08015513897867e-05
sI61964979130
F0.0001616031027795734
sI61961024956
F0.006625727213962507
sI61964979139
F0.00024240465416936006
sI61961024968
F0.006383322559793145
sI61964979150
F8.08015513897867e-05
sI61964979153
F0.00040400775694893345
sI61964979154
F8.08015513897867e-05
sg39
F0.008160956690368457
sI61964979158
F0.0001616031027795734
sI61960619991
F0.010989010989010992
sI61964979163
F8.08015513897867e-05
sI61964944350
F0.00024240465416936006
sg42
F0.0003232062055591468
sI413787380563
F0.000808015513897867
ssS't_cl'
p686
(dp687
I61961025033
g3
(g47
S'dn\x93\xd9\xec\x1b\xb5?'
p688
tp689
Rp690
sI61961025054
g3
(g47
S'V\x96\xd5\xa2\xffl\xb0?'
p691
tp692
Rp693
sI61960946207
g3
(g47
S'n\x86O\x10\x1c\x02\xb2?'
p694
tp695
Rp696
sI61961025059
g3
(g47
S'\xc9\xfc|\xf1\x8e\xc2\xb4?'
p697
tp698
Rp699
sI61960946218
g3
(g47
S'J\x1b\xfca\xe4X\xaf?'
p700
tp701
Rp702
sg12
g3
(g47
S'*\x84\x0eq\xebDr?'
p703
tp704
Rp705
sI61961025073
g3
(g47
S'f\xea\xdd\xd0\x08\xb1\xaa?'
p706
tp707
Rp708
sI61964961871
g3
(g47
S'B\xd2\x9eU@sq?'
p709
tp710
Rp711
sg15
g3
(g47
S'PR>\xf7\x02\xa8\x8e?'
p712
tp713
Rp714
sI61965020015
g3
(g47
S'\xfc\xea\xf4\x1a\x1f-^?'
p715
tp716
Rp717
sg18
g3
(g47
S'B\xd2\x9eU@sq?'
p718
tp719
Rp720
sI61964943979
g3
(g47
S'\xff\xc0\xe4\xcd\xdb5\x94?'
p721
tp722
Rp723
sI61964943982
g3
(g47
S'\x00\x00\x00\x00\x00\x00\x00\x00'
p724
tp725
Rp726
sI61964943984
g3
(g47
S'B\xd2\x9eU@sq?'
p727
tp728
Rp729
sI61964943986
g3
(g47
S'*\x84\x0eq\xebDr?'
p730
tp731
Rp732
sI61964943996
g3
(g47
S'=\x82t\rg\x84e?'
p733
tp734
Rp735
sI61964961925
g3
(g47
S'B\xd2\x9eU@sq?'
p736
tp737
Rp738
sI413791240838
g3
(g47
S'\x934\x8f\x9a\xd2\xaf\xb2?'
p739
tp740
Rp741
sI61964961927
g3
(g47
S'\xb8N\xad\x03\xda\xaf\x93?'
p742
tp743
Rp744
sI61964972168
g3
(g47
S'B\xd2\x9eU@sq?'
p745
tp746
Rp747
sI61964944011
g3
(g47
S'B\xd2\x9eU@sq?'
p748
tp749
Rp750
sI61964944018
g3
(g47
S"'\x9e2\xf8&\xf0\x93?"
p751
tp752
Rp753
sI61961024963
g3
(g47
S'f\x93\xc1\xcb\xb1\x98\xb2?'
p754
tp755
Rp756
sI61964944027
g3
(g47
S'*\x84\x0eq\xebDr?'
p757
tp758
Rp759
sI61964944035
g3
(g47
S'B\xd2\x9eU@sq?'
p760
tp761
Rp762
sI61964944038
g3
(g47
S'q\xee\xff@\xe9\xf0q?'
p763
tp764
Rp765
sI61960946349
g3
(g47
S'\xaf\xd5z\xde\xa01\xac?'
p766
tp767
Rp768
sI61964944046
g3
(g47
S'*\x84\x0eq\xebDr?'
p769
tp770
Rp771
sI61961025202
g3
(g47
S'e}\xfb\x86X\x8d\xa8?'
p772
tp773
Rp774
sI14720303796
g3
(g47
S'\x00\x00\x00\x00\x00\x00\x00\x00'
p775
tp776
Rp777
sI61964944053
g3
(g47
S'\xe8\xa2\x15C\x008s?'
p778
tp779
Rp780
sI61964944054
g3
(g47
S'B\xd2\x9eU@sq?'
p781
tp782
Rp783
sI61964944057
g3
(g47
S'.\xa2rU%\x7f\x93?'
p784
tp785
Rp786
sg21
g3
(g47
S'*\x84\x0eq\xebDr?'
p787
tp788
Rp789
sI61961078559
g3
(g47
S'\x93q\xb8\x1c\xbaL\xa4?'
p790
tp791
Rp792
sI61964944064
g3
(g47
S'B\xd2\x9eU@sq?'
p793
tp794
Rp795
sI61964944067
g3
(g47
S'.\xa2rU%\x7f\x93?'
p796
tp797
Rp798
sI61961024887
g3
(g47
S'\x1a\\IU\xde\x0f\xb3?'
p799
tp800
Rp801
sI61961353423
g3
(g47
S'\x9b\xfa\x0bG`\x96\xb2?'
p802
tp803
Rp804
sI61965359909
g3
(g47
S'\x00\x00\x00\x00\x00\x00\x00\x00'
p805
tp806
Rp807
sI413791240929
g3
(g47
S'\xb3"?jm4\x9e?'
p808
tp809
Rp810
sI61964944337
g3
(g47
S'\xe8\xa2\x15C\x008s?'
p811
tp812
Rp813
sI61961078506
g3
(g47
S'$;\x8c:G\xf7\xb5?'
p814
tp815
Rp816
sI61964944341
g3
(g47
S'\x82w#\xbdkQ\x96?'
p817
tp818
Rp819
sI61965359883
g3
(g47
S'.\xa2rU%\x7f\x93?'
p820
tp821
Rp822
sI61965359903
g3
(g47
S'\x00\x00\x00\x00\x00\x00\x00\x00'
p823
tp824
Rp825
sI61961263393
g3
(g47
S'\x00\x00\x00\x00\x00\x00\x00\x00'
p826
tp827
Rp828
sI61961078565
g3
(g47
S'\xf2s\x16\x89\xb8\x9c\xb3?'
p829
tp830
Rp831
sI61961078566
g3
(g47
S'\xb0#\xebt[n\x96?'
p832
tp833
Rp834
sI61961078573
g3
(g47
S'>\x0e3z\x8a$\xb2?'
p835
tp836
Rp837
sI61965359920
g3
(g47
S'\xfd\xed5\xca\x1c\xc3y?'
p838
tp839
Rp840
sI61965019959
g3
(g47
S'.\xa2rU%\x7f\x93?'
p841
tp842
Rp843
sI61961024824
g3
(g47
S'^m\x94\xe4\x0f\xaa\xb1?'
p844
tp845
Rp846
sI61965019962
g3
(g47
S'L7\\\xf5\xdbJ\x94?'
p847
tp848
Rp849
sI61965359937
g3
(g47
S'\xcbT\x85^\xab\tt?'
p850
tp851
Rp852
sI61961078595
g3
(g47
S'?\x8e?\xec\x97!\xab?'
p853
tp854
Rp855
sI61965359944
g3
(g47
S'B\xd2\x9eU@sq?'
p856
tp857
Rp858
sI61965359948
g3
(g47
S'=\x82t\rg\x84e?'
p859
tp860
Rp861
sI61965019982
g3
(g47
S'\x00\x00\x00\x00\x00\x00\x00\x00'
p862
tp863
Rp864
sI61965019983
g3
(g47
S'B\xd2\x9eU@sq?'
p865
tp866
Rp867
sg24
g3
(g47
S'\x03\\\xed\xbcGc\xb0?'
p868
tp869
Rp870
sI61965019987
g3
(g47
S'B\xd2\x9eU@sq?'
p871
tp872
Rp873
sI61961024853
g3
(g47
S'\xce\x18Z\xff\x8d\xf5\xb1?'
p874
tp875
Rp876
sI61965019992
g3
(g47
S'\xfdg\xad\x85B\xc7q?'
p877
tp878
Rp879
sI61965019994
g3
(g47
S'B\xd2\x9eU@sq?'
p880
tp881
Rp882
sI61961078619
g3
(g47
S'\x00\x00\x00\x00\x00\x00\x00\x00'
p883
tp884
Rp885
sI61965019996
g3
(g47
S'\x07|\x98\x1c\xd9\xe2\x93?'
p886
tp887
Rp888
sg27
g3
(g47
S'B\xd2\x9eU@sq?'
p889
tp890
Rp891
sI61961024868
g3
(g47
S'\xf2\xa0\x8fv:\xdf\xb1?'
p892
tp893
Rp894
sI61965020009
g3
(g47
S'B\xd2\x9eU@sq?'
p895
tp896
Rp897
sI61965359983
g3
(g47
S'B\xd2\x9eU@sq?'
p898
tp899
Rp900
sI61961024881
g3
(g47
S'\xa0\xd9\xd9\x11\xfc\x18\xa5?'
p901
tp902
Rp903
sI61965020019
g3
(g47
S'B\xd2\x9eU@sq?'
p904
tp905
Rp906
sg30
g3
(g47
S'&%h\xc2\xa7v\xb4?'
p907
tp908
Rp909
sI61965020021
g3
(g47
S'*\x84\x0eq\xebDr?'
p910
tp911
Rp912
sg33
g3
(g47
S'\x00\x00\x00\x00\x00\x00\x00\x00'
p913
tp914
Rp915
sI61965359991
g3
(g47
S'+<*x\xe7f\xa4?'
p916
tp917
Rp918
sg36
g3
(g47
S'\xc3u\xff\x92<\xcf\x92?'
p919
tp920
Rp921
sI61961024891
g3
(g47
S'\xd5,\x00\xf3\xd3\x96\xb4?'
p922
tp923
Rp924
sI61965020029
g3
(g47
S'\xa3$\x88\xa3\xb5{\x81?'
p925
tp926
Rp927
sI61961024911
g3
(g47
S'\xa1\x1cr\x13\xcad\xac?'
p928
tp929
Rp930
sI61961024912
g3
(g47
S'\xc3\xb0\xac\xc8:4\xb0?'
p931
tp932
Rp933
sI61961024927
g3
(g47
S'\xa3\x12\x00\x0c\x8f\xa2\xa3?'
p934
tp935
Rp936
sI61961024929
g3
(g47
S'\x0e\xd4\xb0)\x87\xa4\xbb?'
p937
tp938
Rp939
sI61961024937
g3
(g47
S'\xf9v>(\xa1"\xb3?'
p940
tp941
Rp942
sI61961024938
g3
(g47
S'\xa1\x81\xe1\xbaum\xad?'
p943
tp944
Rp945
sI61961024943
g3
(g47
S"7#\xde';{\xb0?"
p946
tp947
Rp948
sI61965360050
g3
(g47
S'=\x82t\rg\x84e?'
p949
tp950
Rp951
sI61961024950
g3
(g47
S'\x95f\x116\x9b\xc3o?'
p952
tp953
Rp954
sI61961024951
g3
(g47
S'\xfb\xfe\xa8dz\x80\xad?'
p955
tp956
Rp957
sI61964944313
g3
(g47
S'B\xd2\x9eU@sq?'
p958
tp959
Rp960
sI61964979130
g3
(g47
S'\xe8\xa2\x15C\x008s?'
p961
tp962
Rp963
sI61961024956
g3
(g47
S'G>;\xd1\xc4O\xae?'
p964
tp965
Rp966
sI61964979139
g3
(g47
S'*\x84\x0eq\xebDr?'
p967
tp968
Rp969
sI61961024968
g3
(g47
S' \xad,\xdb\x95\x8d\xae?'
p970
tp971
Rp972
sI61964979150
g3
(g47
S'B\xd2\x9eU@sq?'
p973
tp974
Rp975
sI61964979153
g3
(g47
S"\x8bU?\x85\xcd'r?"
p976
tp977
Rp978
sI61964979154
g3
(g47
S'B\xd2\x9eU@sq?'
p979
tp980
Rp981
sg39
g3
(g47
S'\x0e\xc7\x01L\x9c,\xa4?'
p982
tp983
Rp984
sI61964979158
g3
(g47
S'q\xee\xff@\xe9\xf0q?'
p985
tp986
Rp987
sI61960619991
g3
(g47
S'\x9cD\x9d\xbe\x0b\xc7\xb0?'
p988
tp989
Rp990
sI61964979163
g3
(g47
S'B\xd2\x9eU@sq?'
p991
tp992
Rp993
sI61964944350
g3
(g47
S'*\x84\x0eq\xebDr?'
p994
tp995
Rp996
sg42
g3
(g47
S'\xff\xc0\xe4\xcd\xdb5\x94?'
p997
tp998
Rp999
sI413787380563
g3
(g47
S'\x9e\x01w%\xb58\x9f?'
p1000
tp1001
Rp1002
ssS'avg_cl'
p1003
(dp1004
I61961025033
F0.03602016686792251
sI61961025054
F0.022575211910371897
sI61960946207
F0.029080569916329582
sI61961025059
F0.03489564608336353
sI61960946218
F0.021289387538513446
sg12
F0.002020880467571644
sI61961025073
F0.010441213341829398
sI61964961871
F0.0019400452488687783
sg15
F0.002225364175913626
sI61965020015
F0.00046541693600517134
sg18
F0.0019400452488687783
sI61964943979
F0.0008334102871917997
sI61964943982
F0.0
sI61964943984
F0.0019400452488687783
sI61964943986
F0.002020880467571644
sI61964943996
F0.0005058879739186645
sI61964961925
F0.0019400452488687783
sI413791240838
F0.02871217018441555
sI61964961927
F0.0007114478061393413
sI61964972168
F0.0019400452488687783
sI61964944011
F0.0019400452488687783
sI61964944018
F0.0007114478061393413
sI61961024963
F0.028367856295664094
sI61964944027
F0.002020880467571644
sI61964944035
F0.0019400452488687783
sI61964944038
F0.002000046648318328
sI61960946349
F0.017321610764111216
sI61964944046
F0.002020880467571644
sI61961025202
F0.010737505772668876
sI14720303796
F0.0
sI61964944053
F0.0019796380090497737
sI61964944054
F0.0019400452488687783
sI61964944057
F0.0006482080011491775
sg21
F0.002020880467571644
sI61961078559
F0.005983889600457871
sI61964944064
F0.0019400452488687783
sI61964944067
F0.0006482080011491775
sI61961024887
F0.026732837463572544
sI61961353423
F0.02512834413481062
sI61965359909
F0.0
sI413791240929
F0.007876879379925188
sI61964944337
F0.0019796380090497737
sI61961078506
F0.03816748390015642
sI61964944341
F0.002325440161271609
sI61965359883
F0.0006482080011491775
sI61965359903
F0.0
sI61961263393
F0.0
sI61961078565
F0.03098365797290801
sI61961078566
F0.007608293408803798
sI61961078573
F0.024911683207265185
sI61965359920
F0.0026184024593737315
sI61965019959
F0.0006482080011491775
sI61961024824
F0.02443923397254779
sI61965019962
F0.0008839200015670605
sI61965359937
F0.0020421528935460824
sI61961078595
F0.014341010491301437
sI61965359944
F0.0019400452488687783
sI61965359948
F0.0005058879739186645
sI61965019982
F0.0
sI61965019983
F0.0019400452488687783
sg24
F0.021877024431972057
sI61965019987
F0.0019400452488687783
sI61961024853
F0.026449569401484834
sI61965019992
F0.0019796380090497737
sI61965019994
F0.0019400452488687783
sI61961078619
F0.0
sI61965019996
F0.0025968747557666033
sg27
F0.0019400452488687783
sI61961024868
F0.0246891405422388
sI61965020009
F0.0019400452488687783
sI61965359983
F0.0019400452488687783
sI61961024881
F0.005520253901819978
sI61965020019
F0.0019400452488687783
sg30
F0.032275083957097626
sI61965020021
F0.002020880467571644
sg33
F0.0
sI61965359991
F0.006858804188691648
sg36
F0.001125006215503953
sI61961024891
F0.03558206405825162
sI61965020029
F0.0005303520009402363
sI61961024911
F0.01515808188498884
sI61961024912
F0.02111400462700664
sI61961024927
F0.016410903752815002
sI61961024929
F0.05187368542277819
sI61961024937
F0.02866661858573717
sI61961024938
F0.019497301096992155
sI61961024943
F0.02182996841488708
sI61965360050
F0.0005058879739186645
sI61961024950
F0.0014586806382472016
sI61961024951
F0.016269670272554493
sI61964944313
F0.0019400452488687783
sI61964979130
F0.0019796380090497737
sI61961024956
F0.019051304114425703
sI61964979139
F0.002020880467571644
sI61961024968
F0.020009281158104755
sI61964979150
F0.0019400452488687783
sI61964979153
F0.0025289295301423862
sI61964979154
F0.0019400452488687783
sg39
F0.00597243880845709
sI61964979158
F0.002000046648318328
sI61960619991
F0.024923760943820983
sI61964979163
F0.0019400452488687783
sI61964944350
F0.002020880467571644
sg42
F0.0008334102871917997
sI413787380563
F0.0019865225429422264
ssS'agg_bt'
p1005
(dp1006
I61961025033
F0.009537432075644767
sI61961025054
F0.0026143229685682006
sI61960946207
F0.0010755919681696912
sI61961025059
F0.007785604652967318
sI61960946218
F0.0022252222184895136
sg12
F0.0
sI61961025073
F0.0025343666391610077
sI61964961871
F0.0
sg15
F0.0
sI61965020015
F0.0
sg18
F0.0
sI61964943979
F0.0
sI61964943982
F0.0
sI61964943984
F0.0
sI61964943986
F0.0
sI61964943996
F0.0
sI61964961925
F0.0
sI413791240838
F0.009416463691337995
sI61964961927
F0.0
sI61964972168
F0.0
sI61964944011
F0.0
sI61964944018
F0.0
sI61961024963
F0.0013744648481348967
sI61964944027
F0.0
sI61964944035
F0.0
sI61964944038
F0.0
sI61960946349
F0.0011728771082737703
sI61964944046
F0.0
sI61961025202
F0.00828688105107074
sI14720303796
F0.0
sI61964944053
F0.0015596426785225495
sI61964944054
F0.0
sI61964944057
F0.0
sg21
F0.0
sI61961078559
F0.004327285206068763
sI61964944064
F0.0
sI61964944067
F0.0
sI61961024887
F0.005699771875743906
sI61961353423
F0.0026678349024479484
sI61965359909
F0.0
sI413791240929
F7.793269031208255e-05
sI61964944337
F0.0015596426785225495
sI61961078506
F0.054865131176039854
sI61964944341
F0.0
sI61965359883
F0.0
sI61965359903
F0.0
sI61961263393
F0.0
sI61961078565
F0.005017075481021621
sI61961078566
F0.00013778159831774077
sI61961078573
F0.008690557935968166
sI61965359920
F0.00043607282684952604
sI61965019959
F0.0
sI61961024824
F0.001302003025519316
sI61965019962
F0.00013069454817027633
sI61965359937
F6.223549912870301e-05
sI61961078595
F0.0004537256321950783
sI61965359944
F0.0
sI61965359948
F0.0
sI61965019982
F0.0
sI61965019983
F0.0
sg24
F0.00037046324340658175
sI61965019987
F0.0
sI61961024853
F0.001891071800870308
sI61965019992
F0.0
sI61965019994
F0.0
sI61961078619
F0.0
sI61965019996
F0.0010424756970686773
sg27
F0.0
sI61961024868
F0.0022314135276190507
sI61965020009
F0.0
sI61965359983
F0.0
sI61961024881
F0.005969088509834459
sI61965020019
F0.0
sg30
F0.05542299272100072
sI61965020021
F0.0
sg33
F0.0
sI61965359991
F0.0007118353598936125
sg36
F8.401792382374907e-05
sI61961024891
F0.0057800763950243035
sI61965020029
F0.0
sI61961024911
F0.0014688888607305955
sI61961024912
F0.004565579471149625
sI61961024927
F0.0007803126486897703
sI61961024929
F0.58610973261852
sI61961024937
F0.0028101280629983143
sI61961024938
F0.00028174345059057553
sI61961024943
F0.0010845960179676662
sI61965360050
F0.0
sI61961024950
F0.0006845904904157332
sI61961024951
F0.0033369119406204653
sI61964944313
F0.0
sI61964979130
F0.0
sI61961024956
F0.00035262217687760525
sI61964979139
F0.0
sI61961024968
F0.0007757592762589908
sI61964979150
F0.0
sI61964979153
F0.0
sI61964979154
F0.0
sg39
F0.0008304418591946599
sI61964979158
F0.0
sI61960619991
F0.0007778390842861522
sI61964979163
F0.0
sI61964944350
F0.0
sg42
F0.0
sI413787380563
F0.0003064155369980613
ssS'agg_deg'
p1007
(dp1008
I61961025033
F0.31730769230769235
sI61961025054
F0.23076923076923078
sI61960946207
F0.21153846153846156
sI61961025059
F0.27884615384615385
sI61960946218
F0.23076923076923078
sg12
F0.028846153846153848
sI61961025073
F0.16346153846153846
sI61964961871
F0.009615384615384616
sg15
F0.057692307692307696
sI61965020015
F0.009615384615384616
sg18
F0.009615384615384616
sI61964943979
F0.038461538461538464
sI61964943982
F0.0
sI61964943984
F0.009615384615384616
sI61964943986
F0.028846153846153848
sI61964943996
F0.019230769230769232
sI61964961925
F0.009615384615384616
sI413791240838
F0.2980769230769231
sI61964961927
F0.019230769230769232
sI61964972168
F0.009615384615384616
sI61964944011
F0.009615384615384616
sI61964944018
F0.019230769230769232
sI61961024963
F0.2403846153846154
sI61964944027
F0.028846153846153848
sI61964944035
F0.009615384615384616
sI61964944038
F0.019230769230769232
sI61960946349
F0.19230769230769232
sI61964944046
F0.028846153846153848
sI61961025202
F0.125
sI14720303796
F0.0
sI61964944053
F0.019230769230769232
sI61964944054
F0.009615384615384616
sI61964944057
F0.009615384615384616
sg21
F0.028846153846153848
sI61961078559
F0.04807692307692308
sI61964944064
F0.009615384615384616
sI61964944067
F0.009615384615384616
sI61961024887
F0.22115384615384617
sI61961353423
F0.27884615384615385
sI61965359909
F0.0
sI413791240929
F0.11538461538461539
sI61964944337
F0.019230769230769232
sI61961078506
F0.46153846153846156
sI61964944341
F0.028846153846153848
sI61965359883
F0.009615384615384616
sI61965359903
F0.0
sI61961263393
F0.0
sI61961078565
F0.3269230769230769
sI61961078566
F0.10576923076923078
sI61961078573
F0.33653846153846156
sI61965359920
F0.057692307692307696
sI61965019959
F0.009615384615384616
sI61961024824
F0.27884615384615385
sI61965019962
F0.04807692307692308
sI61965359937
F0.038461538461538464
sI61961078595
F0.10576923076923078
sI61965359944
F0.009615384615384616
sI61965359948
F0.019230769230769232
sI61965019982
F0.0
sI61965019983
F0.009615384615384616
sg24
F0.19230769230769232
sI61965019987
F0.009615384615384616
sI61961024853
F0.2884615384615385
sI61965019992
F0.019230769230769232
sI61965019994
F0.009615384615384616
sI61961078619
F0.0
sI61965019996
F0.06730769230769232
sg27
F0.009615384615384616
sI61961024868
F0.25961538461538464
sI61965020009
F0.009615384615384616
sI61965359983
F0.009615384615384616
sI61961024881
F0.06730769230769232
sI61965020019
F0.009615384615384616
sg30
F0.4326923076923077
sI61965020021
F0.028846153846153848
sg33
F0.0
sI61965359991
F0.08653846153846154
sg36
F0.028846153846153848
sI61961024891
F0.21153846153846156
sI61965020029
F0.009615384615384616
sI61961024911
F0.25961538461538464
sI61961024912
F0.2980769230769231
sI61961024927
F0.22115384615384617
sI61961024929
F0.9038461538461539
sI61961024937
F0.3076923076923077
sI61961024938
F0.20192307692307693
sI61961024943
F0.20192307692307693
sI61965360050
F0.019230769230769232
sI61961024950
F0.04807692307692308
sI61961024951
F0.16346153846153846
sI61964944313
F0.009615384615384616
sI61964979130
F0.019230769230769232
sI61961024956
F0.19230769230769232
sI61964979139
F0.028846153846153848
sI61961024968
F0.16346153846153846
sI61964979150
F0.009615384615384616
sI61964979153
F0.028846153846153848
sI61964979154
F0.009615384615384616
sg39
F0.10576923076923078
sI61964979158
F0.019230769230769232
sI61960619991
F0.17307692307692307
sI61964979163
F0.009615384615384616
sI61964944350
F0.028846153846153848
sg42
F0.038461538461538464
sI413787380563
F0.057692307692307696
ss.