(dp0
S'agg_cl'
p1
(dp2
I61961025033
F0.6203473945409429
sI61961025054
F0.5623031938821412
sI61960946207
F0.5401901469317201
sI61961025059
F0.6453278265358803
sI61960946218
F0.6009615384615384
scnumpy.core.multiarray
scalar
p3
(cnumpy
dtype
p4
(S'i8'
p5
I0
I1
tp6
Rp7
(I3
S'<'
p8
NNNI-1
I-1
I0
tp9
bS'\xb2\x02fm\x0e\x00\x00\x00'
p10
tp11
Rp12
F0.5972288580984233
sI61961025073
F0.5401901469317201
sI61964961871
F0.5283178360101438
sg3
(g7
S'\xba%\x8cW`\x00\x00\x00'
p13
tp14
Rp15
F0.4905808477237049
sI61965020015
F0.5401901469317201
sg3
(g7
S'\xd5\x8bfm\x0e\x00\x00\x00'
p16
tp17
Rp18
F0.4831851565519907
sI61964943979
F0.4880905896134322
sI61964943982
F0.4856254856254857
sI61964943984
F0.589900896649363
sI61964943986
F0.5114566284779051
sI61964943996
F0.5827505827505828
sI61964961925
F0.4880905896134322
sI413791240838
F0.5792400370713624
sI61964961927
F0.4831851565519907
sI61964972168
F0.5972288580984233
sI61964944011
F0.4880905896134322
sI61964944018
F0.5526083112290009
sI61961024963
F0.5526083112290009
sI61964944027
F0.5526083112290009
sI61964944035
F0.5689576695493855
sI61964944038
F0.6047411707789067
sI61960946349
F0.5401901469317201
sI61964944046
F0.5863039399624765
sI61961025202
F0.5060728744939271
sI14720303796
F0.0
sI61964944053
F0.4880905896134322
sI61964944054
F0.5623031938821412
sI61964944057
F0.4831851565519907
sg3
(g7
S'\xba\x02fm\x0e\x00\x00\x00'
p19
tp20
Rp21
F0.5114566284779051
sI61961078559
F0.4807692307692308
sI61964944064
F0.5558025789239662
sI61964944067
F0.4831851565519907
sI61961024887
F0.5401901469317201
sI61961353423
F0.8289124668435013
sI61965359909
F0.5558025789239662
sI413791240929
F0.589900896649363
sI61964944337
F0.5558025789239662
sI61961078506
F0.6819421713038735
sI61964944341
F0.4905808477237049
sI61965359883
F0.4880905896134322
sI61965359903
F0.5935422602089269
sI61961263393
F0.0
sI61961078565
F0.6585879873551106
sI61961078566
F0.5034232782923882
sI61961078573
F0.7396449704142013
sI61965359920
F0.5623031938821412
sI61965019959
F0.4807692307692308
sI61961024824
F0.5623031938821412
sI61965019962
F0.49309664694280075
sI61965359937
F0.4856254856254857
sI61961078595
F0.5169561621174524
sI61965359944
F0.5371723248818221
sI61965359948
F0.5494505494505494
sI61965019982
F0.49820645675567954
sI61965019983
F0.5526083112290009
sg3
(g7
S'R\x07+m\x0e\x00\x00\x00'
p22
tp23
Rp24
F0.5401901469317201
sI61965019987
F0.49820645675567954
sI61961024853
F0.5623031938821412
sI61965019992
F0.5494505494505494
sI61965019994
F0.4807692307692308
sI61961078619
F0.0
sI61965019996
F0.5087505087505088
sg3
(g7
S'`[lm\x0e\x00\x00\x00'
p25
tp26
Rp27
F0.49563838223632034
sI61961024868
F0.5656108597285068
sI61965020009
F0.4856254856254857
sI61965359983
F0.5689576695493855
sI61961024881
F0.49820645675567954
sI61965020019
F0.5371723248818221
sg3
(g7
S't5*m\x0e\x00\x00\x00'
p28
tp29
Rp30
F0.8218277449046679
sI61965020021
F0.5463286713286714
sg3
(g7
S'v5*m\x0e\x00\x00\x00'
p31
tp32
Rp33
F0.0
sI61965359991
F0.5558025789239662
sg3
(g7
S'x5*m\x0e\x00\x00\x00'
p34
tp35
Rp36
F0.34097108565193673
sI61961024891
F0.5494505494505494
sI61965020029
F0.49820645675567954
sI61961024911
F0.5494505494505494
sI61961024912
F0.5723443223443223
sI61961024927
F0.5463286713286714
sI61961024929
F0.8903133903133903
sI61961024937
F0.5723443223443223
sI61961024938
F0.5341880341880342
sI61961024943
F0.6203473945409429
sI61965360050
F0.531236719082023
sI61961024950
F0.46006624953993375
sI61961024951
F0.5432420686657975
sI61964944313
F0.5432420686657975
sI61964979130
F0.4856254856254857
sI61961024956
F0.5371723248818221
sI61964979139
F0.5371723248818221
sI61961024968
F0.5341880341880342
sI61964979150
F0.5526083112290009
sI61964979153
F0.5034232782923882
sI61964979154
F0.5558025789239662
sg3
(g7
S'N\x07+m\x0e\x00\x00\x00'
p37
tp38
Rp39
F0.5060728744939271
sI61964979158
F0.5656108597285068
sI61960619991
F0.5558025789239662
sI61964979163
F0.531236719082023
sI61964944350
F0.5371723248818221
sg3
(g7
S'\xf2\x03fm\x0e\x00\x00\x00'
p40
tp41
Rp42
F0.5114566284779051
sI413787380563
F0.5371723248818221
ssS't_deg'
p43
(dp44
I61961025033
g3
(g4
(S'f8'
p45
I0
I1
tp46
Rp47
(I3
S'<'
p48
NNNI-1
I-1
I0
tp49
bS'?\xfd[\xcc\xbc\xf7\x93?'
p50
tp51
Rp52
sI61961025054
g3
(g47
S'|\x93[\ru\xba\x82?'
p53
tp54
Rp55
sI61960946207
g3
(g47
S'\xe7e\xb4v\xb61\x8d?'
p56
tp57
Rp58
sI61961025059
g3
(g47
S'2\x0614\x97\x12\x93?'
p59
tp60
Rp61
sI61960946218
g3
(g47
S'q\xd9\x07-S\x8c\x87?'
p62
tp63
Rp64
sg12
g3
(g47
S'\xda1\xb2&\x8d\x95f?'
p65
tp66
Rp67
sI61961025073
g3
(g47
S'\xdd\xbe\xb2z\x97<h?'
p68
tp69
Rp70
sI61964961871
g3
(g47
S'\xd6\xa4\xb1\xd2\x82\xeeT?'
p71
tp72
Rp73
sg15
g3
(g47
S'\xcf\x8a\xb0*n\xa0A?'
p74
tp75
Rp76
sI61965020015
g3
(g47
S'\x8a\xc7]]\x9eVY?'
p77
tp78
Rp79
sg18
g3
(g47
S'\x83\xad\\\xb5\x89\x086?'
p80
tp81
Rp82
sI61964943979
g3
(g47
S'7\xd0\x08@\xa5p:?'
p83
tp84
Rp85
sI61964943982
g3
(g47
S'\xeb\xf2\xb4\xca\xc0\xd8>?'
p86
tp87
Rp88
sI61964943984
g3
(g47
S'\xd6\xa4\xb1\xd2\x82\xeed?'
p89
tp90
Rp91
sI61964943986
g3
(g47
S'\xcf\x8a\xb0*n\xa0Q?'
p92
tp93
Rp94
sI61964943996
g3
(g47
S'\x80 \\a\x7fad?'
p95
tp96
Rp97
sI61964961925
g3
(g47
S'\xeb\xf2\xb4\xca\xc0\xd8>?'
p98
tp99
Rp100
sI413791240838
g3
(g47
S'Aw\n<\xc4e\x8f?'
p101
tp102
Rp103
sI61964961927
g3
(g47
S'\xcf\x8a\xb0*n\xa01?'
p104
tp105
Rp106
sI61964972168
g3
(g47
S'\x83\xad\\\xb5\x89\x08f?'
p107
tp108
Rp109
sI61964944011
g3
(g47
S'7\xd0\x08@\xa5p:?'
p110
tp111
Rp112
sI61964944018
g3
(g47
S'>\xea\t\xe8\xb9\xbe]?'
p113
tp114
Rp115
sI61961024963
g3
(g47
S';]\t\x94\xaf\x17\x8c?'
p116
tp117
Rp118
sI61964944027
g3
(g47
S'\x98\xfb_\xad\xc7\xf2_?'
p119
tp120
Rp121
sI61964944035
g3
(g47
S'\xcf\x8a\xb0*n\xa0a?'
p122
tp123
Rp124
sI61964944038
g3
(g47
S'0\xb6\x07\x98\x90"g?'
p125
tp126
Rp127
sI61960946349
g3
(g47
S'\x08\x81]3\x19\x83x?'
p128
tp129
Rp130
sI61964944046
g3
(g47
S'-)\x07D\x86{e?'
p131
tp132
Rp133
sI61961025202
g3
(g47
S'[x\xb2P\x12iw?'
p134
tp135
Rp136
sI14720303796
g3
(g47
S'\x00\x00\x00\x00\x00\x00\x00\x00'
p137
tp138
Rp139
sI61964944053
g3
(g47
S'7\xd0\x08@\xa5p:?'
p140
tp141
Rp142
sI61964944054
g3
(g47
S'"\x82\x05Hg\x86`?'
p143
tp144
Rp145
sI61964944057
g3
(g47
S'\xcf\x8a\xb0*n\xa01?'
p146
tp147
Rp148
sg21
g3
(g47
S'"\x82\x05Hg\x86P?'
p149
tp150
Rp151
sI61961078559
g3
(g47
S'y\x06[\xb9j\x13a?'
p152
tp153
Rp154
sI61964944064
g3
(g47
S'\xeb\xf2\xb4\xca\xc0\xd8^?'
p155
tp156
Rp157
sI61964944067
g3
(g47
S'\x83\xad\\\xb5\x89\x086?'
p158
tp159
Rp160
sI61961024887
g3
(g47
S'\xb5\x89\x08\x16 \x9d\x89?'
p161
tp162
Rp163
sI61961353423
g3
(g47
S'\xca\xad\x86:]\t\x94?'
p164
tp165
Rp166
sI61965359909
g3
(g47
S'\x98\xfb_\xad\xc7\xf2_?'
p167
tp168
Rp169
sI413791240929
g3
(g47
S'0\xb6\x07\x98\x90"w?'
p170
tp171
Rp172
sI61964944337
g3
(g47
S'\x98\xfb_\xad\xc7\xf2_?'
p173
tp174
Rp175
sI61961078506
g3
(g47
S'4C\x08\xec\x9a\xc9\x98?'
p176
tp177
Rp178
sI61964944341
g3
(g47
S'\x83\xad\\\xb5\x89\x08F?'
p179
tp180
Rp181
sI61965359883
g3
(g47
S'7\xd0\x08@\xa5p:?'
p182
tp183
Rp184
sI61965359903
g3
(g47
S'\x83\xad\\\xb5\x89\x08f?'
p185
tp186
Rp187
sI61961263393
g3
(g47
S'\x00\x00\x00\x00\x00\x00\x00\x00'
p188
tp189
Rp190
sI61961078565
g3
(g47
S'\xa8U\x06\xc6\xf6\x00\x93?'
p191
tp192
Rp193
sI61961078566
g3
(g47
S'\x80 \\a\x7fad?'
p194
tp195
Rp196
sI61961078573
g3
(g47
S'2\x0614\x97\x12\x93?'
p197
tp198
Rp199
sI61965359920
g3
(g47
S'|\x93[\ru\xbab?'
p200
tp201
Rp202
sI61965019959
g3
(g47
S'\xcf\x8a\xb0*n\xa01?'
p203
tp204
Rp205
sI61961024824
g3
(g47
S'\xad20\xb6\x07\x98\x90?'
p206
tp207
Rp208
sI61965019962
g3
(g47
S'\xcf\x8a\xb0*n\xa0A?'
p209
tp210
Rp211
sI61965359937
g3
(g47
S'\xeb\xf2\xb4\xca\xc0\xd8>?'
p212
tp213
Rp214
sI61961078595
g3
(g47
S'\x98\xfb_\xad\xc7\xf2o?'
p215
tp216
Rp217
sI61965359944
g3
(g47
S'\x8a\xc7]]\x9eVY?'
p218
tp219
Rp220
sI61965359948
g3
(g47
S'\x91\xe1^\x05\xb3\xa4\\?'
p221
tp222
Rp223
sI61965019982
g3
(g47
S'\x91\xe1^\x05\xb3\xa4\\?'
p224
tp225
Rp226
sI61965019983
g3
(g47
S'>\xea\t\xe8\xb9\xbe]?'
p227
tp228
Rp229
sg24
g3
(g47
S'c\xa5\x05\xdd)\xf0\x80?'
p230
tp231
Rp232
sI61965019987
g3
(g47
S')\x9c\x06\xf0{\xd4C?'
p233
tp234
Rp235
sI61961024853
g3
(g47
S'\xdd\xbe\xb2z\x97<\x88?'
p236
tp237
Rp238
sI61965019992
g3
(g47
S'\xeb\xf2\xb4\xca\xc0\xd8^?'
p239
tp240
Rp241
sI61965019994
g3
(g47
S'\xcf\x8a\xb0*n\xa01?'
p242
tp243
Rp244
sI61961078619
g3
(g47
S'\x00\x00\x00\x00\x00\x00\x00\x00'
p245
tp246
Rp247
sI61965019996
g3
(g47
S'\xcf\x8a\xb0*n\xa0Q?'
p248
tp249
Rp250
sg27
g3
(g47
S'\xcf\x8a\xb0*n\xa0A?'
p251
tp252
Rp253
sI61961024868
g3
(g47
S'f\x1f\xb4L1^\x8c?'
p254
tp255
Rp256
sI61965020009
g3
(g47
S'\x83\xad\\\xb5\x89\x086?'
p257
tp258
Rp259
sI61965359983
g3
(g47
S'\xcf\x8a\xb0*n\xa0a?'
p260
tp261
Rp262
sI61961024881
g3
(g47
S'y\x06[\xb9j\x13a?'
p263
tp264
Rp265
sI61965020019
g3
(g47
S'\xdd\xbe\xb2z\x97<X?'
p266
tp267
Rp268
sg30
g3
(g47
S'\x1e\xe2\xb2\x0fZ\xa6\x98?'
p269
tp270
Rp271
sI61965020021
g3
(g47
S'>\xea\t\xe8\xb9\xbe]?'
p272
tp273
Rp274
sg33
g3
(g47
S'\x00\x00\x00\x00\x00\x00\x00\x00'
p275
tp276
Rp277
sI61965359991
g3
(g47
S'>\xea\t\xe8\xb9\xbem?'
p278
tp279
Rp280
sg36
g3
(g47
S'\xdd\xbe\xb2z\x97<H?'
p281
tp282
Rp283
sI61961024891
g3
(g47
S'\x82\x9a\n\xd1\x86\xcf\x8f?'
p284
tp285
Rp286
sI61965020029
g3
(g47
S'\x83\xad\\\xb5\x89\x08F?'
p287
tp288
Rp289
sI61961024911
g3
(g47
S'\xb2\xfc\x07\xc2\x15\xf6w?'
p290
tp291
Rp292
sI61961024912
g3
(g47
S'\xa4\xc8\x05r\xecY\x81?'
p293
tp294
Rp295
sI61961024927
g3
(g47
S'\xe4\xd8\xb3"\xac\x8a{?'
p296
tp297
Rp298
sI61961024929
g3
(g47
S'\x8c\x17\x87\xf9\xa4F\xa5?'
p299
tp300
Rp301
sI61961024937
g3
(g47
S'\x8fg\xb0\x95\xab6\x91?'
p302
tp303
Rp304
sI61961024938
g3
(g47
S'b\x92\xb3\xf8&\xb7z?'
p305
tp306
Rp307
sI61961024943
g3
(g47
S'\x01T\n\xa7\x01\xfc\x8e?'
p308
tp309
Rp310
sI61965360050
g3
(g47
S'\xdd\xbe\xb2z\x97<X?'
p311
tp312
Rp313
sI61961024950
g3
(g47
S'\xeb\xf2\xb4\xca\xc0\xd8N?'
p314
tp315
Rp316
sI61961024951
g3
(g47
S'|\x93[\ru\xba\x82?'
p317
tp318
Rp319
sI61964944313
g3
(g47
S'7\xd0\x08@\xa5pZ?'
p320
tp321
Rp322
sI61964979130
g3
(g47
S'7\xd0\x08@\xa5p:?'
p323
tp324
Rp325
sI61961024956
g3
(g47
S'\xc00\n\x12?\x92~?'
p326
tp327
Rp328
sI61964979139
g3
(g47
S'\xe4\xd8\xb3"\xac\x8a[?'
p329
tp330
Rp331
sI61961024968
g3
(g47
S'\x91\xe1^\x05\xb3\xa4|?'
p332
tp333
Rp334
sI61964979150
g3
(g47
S'\xeb\xf2\xb4\xca\xc0\xd8^?'
p335
tp336
Rp337
sI61964979153
g3
(g47
S'\xeb\xf2\xb4\xca\xc0\xd8N?'
p338
tp339
Rp340
sI61964979154
g3
(g47
S'\xeb\xf2\xb4\xca\xc0\xd8^?'
p341
tp342
Rp343
sg39
g3
(g47
S'\xd6\xa4\xb1\xd2\x82\xeed?'
p344
tp345
Rp346
sI61964979158
g3
(g47
S'\xcf\x8a\xb0*n\xa0a?'
p347
tp348
Rp349
sI61960619991
g3
(g47
S'\xe1K\xb3\xce\xa1\xe3\x89?'
p350
tp351
Rp352
sI61964979163
g3
(g47
S'\x83\xad\\\xb5\x89\x08V?'
p353
tp354
Rp355
sI61964944350
g3
(g47
S'7\xd0\x08@\xa5pZ?'
p356
tp357
Rp358
sg42
g3
(g47
S'"\x82\x05Hg\x86P?'
p359
tp360
Rp361
sI413787380563
g3
(g47
S'\x87:]\t\x94\xafg?'
p362
tp363
Rp364
ssS'avg_bt'
p365
(dp366
I61961025033
F0.0016577066893497191
sI61961025054
F0.0007534681918574499
sI61960946207
F0.001083788287646749
sI61961025059
F0.0008859496677459553
sI61960946218
F0.0009255356847153658
sg12
F7.480073754994712e-05
sI61961025073
F0.0002979941683300004
sI61964961871
F7.403240435783905e-06
sg15
F1.3132206245684491e-06
sI61965020015
F3.5613871773966607e-05
sg18
F1.353137384861686e-05
sI61964943979
F9.219633280466237e-06
sI61964943982
F6.8120994973455544e-06
sI61964943984
F5.411835949537121e-05
sI61964943986
F1.016190150022692e-05
sI61964943996
F0.00010547170397695714
sI61964961925
F1.9114538505717293e-05
sI413791240838
F0.001150729331345052
sI61964961927
F5.168834867840818e-06
sI61964972168
F8.534961641637699e-05
sI61964944011
F9.075147685947602e-06
sI61964944018
F0.0003317114652117767
sI61961024963
F0.0018478070389634231
sI61964944027
F2.4496440876618372e-05
sI61964944035
F5.079621197929511e-05
sI61964944038
F7.641002071245392e-05
sI61960946349
F0.0002469796194901921
sI61964944046
F8.360650004487246e-05
sI61961025202
F0.00040881717124164
sI14720303796
F0.0
sI61964944053
F9.365186647333956e-06
sI61964944054
F5.2291156363643995e-05
sI61964944057
F6.463868002225798e-06
sg21
F3.230118552598542e-05
sI61961078559
F0.0002450893698602301
sI61964944064
F2.7700482760942237e-05
sI61964944067
F1.353137384861686e-05
sI61961024887
F0.0006814095368912136
sI61961353423
F0.0016291350337732527
sI61965359909
F4.167612263934254e-05
sI413791240929
F0.00021220062214352613
sI61964944337
F4.5743794275820204e-05
sI61961078506
F0.0013297107107131795
sI61964944341
F1.2472145950710517e-05
sI61965359883
F4.042016292730669e-06
sI61965359903
F0.00010869072911526194
sI61961263393
F0.0
sI61961078565
F0.0012707398282666912
sI61961078566
F0.00010735136227060907
sI61961078573
F0.0017924332590121765
sI61965359920
F4.560494776705857e-05
sI61965019959
F5.96110052878858e-07
sI61961024824
F0.002256418839257863
sI61965019962
F1.4322183384448002e-05
sI61965359937
F3.904381399595807e-06
sI61961078595
F0.0001449825646373993
sI61965359944
F1.7338508771767496e-05
sI61965359948
F2.1174433044520413e-05
sI61965019982
F6.35836764642197e-05
sI61965019983
F4.608384195343154e-05
sg24
F0.0004972959306534931
sI61965019987
F5.23404553886314e-06
sI61961024853
F0.0008864587442177176
sI61965019992
F3.694242974261735e-05
sI61965019994
F9.093354129548882e-06
sI61961078619
F0.0
sI61965019996
F3.858360097457987e-05
sg27
F4.3564019772783064e-06
sI61961024868
F0.001724914812634426
sI61965020009
F8.85754104563745e-06
sI61965359983
F5.616269524084556e-05
sI61961024881
F0.0001564892719248073
sI61965020019
F2.7369904769392465e-05
sg30
F0.00218699222676937
sI61965020021
F2.0778646445364706e-05
sg33
F0.0
sI61965359991
F7.283772215430651e-05
sg36
F4.178047493954888e-05
sI61961024891
F0.0004449989522904229
sI61965020029
F3.0167289045797352e-05
sI61961024911
F0.0003601964447106054
sI61961024912
F0.00089616224301557
sI61961024927
F0.0005559912756971531
sI61961024929
F0.004864678367745886
sI61961024937
F0.0019822846354126747
sI61961024938
F0.0006144563686104453
sI61961024943
F0.00142418877831051
sI61965360050
F1.6218497136059355e-05
sI61961024950
F0.00010107407902630243
sI61961024951
F0.0019906266328050394
sI61964944313
F2.1747348718533986e-05
sI61964979130
F9.466839638505872e-06
sI61961024956
F0.00046562961919435276
sI61964979139
F3.4355332611886024e-05
sI61961024968
F0.0004506129832795132
sI61964979150
F2.9559710309116544e-05
sI61964979153
F6.295232100903597e-06
sI61964979154
F4.401229299359499e-05
sg39
F0.00015381581891528258
sI61964979158
F5.2952202451597435e-05
sI61960619991
F0.0010393948238316805
sI61964979163
F9.538340633689689e-06
sI61964944350
F1.9729292775768233e-05
sg42
F2.6121459118924305e-05
sI413787380563
F0.00015390192068987364
ssS't_bt'
p367
(dp368
I61961025033
g3
(g47
S'\x81\x98G"\x1f\x19\x1e@'
p369
tp370
Rp371
sI61961025054
g3
(g47
S'\xaaQ\xebK\xcd\xc0\x00@'
p372
tp373
Rp374
sI61960946207
g3
(g47
S'Q9\xd6mI\xc9\x01@'
p375
tp376
Rp377
sI61961025059
g3
(g47
S' \x96\x90$\xbf\x14\x19@'
p378
tp379
Rp380
sI61960946218
g3
(g47
S"$'\xb7\xbd\x8f\x15\x0c@"
p381
tp382
Rp383
sg12
g3
(g47
S'\x80\xc1%\xea\x1f!W?'
p384
tp385
Rp386
sI61961025073
g3
(g47
S'8\xa54\xcb\xa7\xa6\xf7?'
p387
tp388
Rp389
sI61964961871
g3
(g47
S'\x9cZ$\xcc=\xdf\xdb='
p390
tp391
Rp392
sg15
g3
(g47
S';\xf9)\x88v\xba`='
p393
tp394
Rp395
sI61965020015
g3
(g47
S'\xc2\xe6\x88\xa3\xf6\x82\x92?'
p396
tp397
Rp398
sg18
g3
(g47
S'\x00\x00\x00\x00\x00\x00\x00\x00'
p399
tp400
Rp401
sI61964943979
g3
(g47
S'\x00\x00\x00\x00\x00\x00\x00\x00'
p402
tp403
Rp404
sI61964943982
g3
(g47
S'\x00\x00\x00\x00\x00\x00\x00\x00'
p405
tp406
Rp407
sI61964943984
g3
(g47
S'\x85\xa5\xa3\x87\x82\xd8H?'
p408
tp409
Rp410
sI61964943986
g3
(g47
S'Y\x83\xca\x06\xa7\xf6\x10>'
p411
tp412
Rp413
sI61964943996
g3
(g47
S'\xa3\xba?\xce\xbc\x1f\x96?'
p414
tp415
Rp416
sI61964961925
g3
(g47
S'\x00\x00\x00\x00\x00\x00\x00\x00'
p417
tp418
Rp419
sI413791240838
g3
(g47
S'\x0c\xe8\xa1\x882v\x05@'
p420
tp421
Rp422
sI61964961927
g3
(g47
S'\x00\x00\x00\x00\x00\x00\x00\x00'
p423
tp424
Rp425
sI61964972168
g3
(g47
S'\x93\xe3sa\x85\xd8H?'
p426
tp427
Rp428
sI61964944011
g3
(g47
S'4q\xa1E\\\x82\xa7='
p429
tp430
Rp431
sI61964944018
g3
(g47
S'\n\x13\xb2\xb9\xa8\xad\xdb?'
p432
tp433
Rp434
sI61961024963
g3
(g47
S'\xa2_\xeb\x93XH\x1a@'
p435
tp436
Rp437
sI61964944027
g3
(g47
S'u\t\xaa\x88\x1b!W?'
p438
tp439
Rp440
sI61964944035
g3
(g47
S'\x07\xe4\x8cz\x83\xd8H?'
p441
tp442
Rp443
sI61964944038
g3
(g47
S'\xcf\xa8m\xa2\xb1\x8d\x12>'
p444
tp445
Rp446
sI61960946349
g3
(g47
S'\xb8e\x1b+\x02 \xf1?'
p447
tp448
Rp449
sI61964944046
g3
(g47
S'\tB\xac\xe1\x1e!W?'
p450
tp451
Rp452
sI61961025202
g3
(g47
S'\x19\xef\x88\xe0x\x10\x03@'
p453
tp454
Rp455
sI14720303796
g3
(g47
S'\x00\x00\x00\x00\x00\x00\x00\x00'
p456
tp457
Rp458
sI61964944053
g3
(g47
S'&5\xbb\x9c\xf5\x13\xf6>'
p459
tp460
Rp461
sI61964944054
g3
(g47
S'yr\xd94}ap?'
p462
tp463
Rp464
sI61964944057
g3
(g47
S'\x00\x00\x00\x00\x00\x00\x00\x00'
p465
tp466
Rp467
sg21
g3
(g47
S'\xc2E!M\xee\xe7\xb3?'
p468
tp469
Rp470
sI61961078559
g3
(g47
S'N\x9d\x19\x82D[\xe9?'
p471
tp472
Rp473
sI61964944064
g3
(g47
S'\x13#\xf7\x83\xdd\xb6\x00>'
p474
tp475
Rp476
sI61964944067
g3
(g47
S'\x00\x00\x00\x00\x00\x00\x00\x00'
p477
tp478
Rp479
sI61961024887
g3
(g47
S'Ff\xb9\x13{-$@'
p480
tp481
Rp482
sI61961353423
g3
(g47
S'\xa2B\xa31J\xa3\x10@'
p483
tp484
Rp485
sI61965359909
g3
(g47
S'\x00\x00\x00\x00\x00\x00\x00\x00'
p486
tp487
Rp488
sI413791240929
g3
(g47
S'\xed\xe4\xd5\xd7\x11\x18\xe6?'
p489
tp490
Rp491
sI61964944337
g3
(g47
S'p\xb2\xf4\x18\x9b\xe5\x9c?'
p492
tp493
Rp494
sI61961078506
g3
(g47
S'\x16\xd5\x95\xc0\xbae&@'
p495
tp496
Rp497
sI61964944341
g3
(g47
S'\xda\x10\rr2\x13\xb8?'
p498
tp499
Rp500
sI61965359883
g3
(g47
S'\x9a.^\xdb\xee\x13\xf6>'
p501
tp502
Rp503
sI61965359903
g3
(g47
S'&TB\x97WG=>'
p504
tp505
Rp506
sI61961263393
g3
(g47
S'\x00\x00\x00\x00\x00\x00\x00\x00'
p507
tp508
Rp509
sI61961078565
g3
(g47
S'\xa7a\x9fz\x8az\x14@'
p510
tp511
Rp512
sI61961078566
g3
(g47
S'\xf0\x91\xb6\xf8\x87\xbf\xd4?'
p513
tp514
Rp515
sI61961078573
g3
(g47
S'\xde\xc7\x8c\xf6\xb1\xcd\r@'
p516
tp517
Rp518
sI61965359920
g3
(g47
S'W\xbb\x97\x9a|\xd5\xd2?'
p519
tp520
Rp521
sI61965019959
g3
(g47
S'\x9a.^\xdb\xee\x13\xf6>'
p522
tp523
Rp524
sI61961024824
g3
(g47
S'\xebl\x8f\x83"a\x17@'
p525
tp526
Rp527
sI61965019962
g3
(g47
S'\xca\xe5\xe8\xe3\xef\x13\xf6>'
p528
tp529
Rp530
sI61965359937
g3
(g47
S',\xaf\xe2M\xf5\x13\xf6>'
p531
tp532
Rp533
sI61961078595
g3
(g47
S'\xf4\xd5\xb0"\x8cS\xe7?'
p534
tp535
Rp536
sI61965359944
g3
(g47
S'\x9c\xa7\xb8h\xce\xfa\xee?'
p537
tp538
Rp539
sI61965359948
g3
(g47
S'\x1bVj\x07\xbc\x1f\x96?'
p540
tp541
Rp542
sI61965019982
g3
(g47
S'\x00\x00\x00\x00\x00\x00\x00\x00'
p543
tp544
Rp545
sI61965019983
g3
(g47
S'\x15Y\x15\x9a\x85\xd8H?'
p546
tp547
Rp548
sg24
g3
(g47
S'\xce\x99.-\xcd\x81\xea?'
p549
tp550
Rp551
sI61965019987
g3
(g47
S'Y\xa6\x18\xb1\xfb\xb9\xfe='
p552
tp553
Rp554
sI61961024853
g3
(g47
S'\x825\xbf\xd1OA\x00@'
p555
tp556
Rp557
sI61965019992
g3
(g47
S'\x05\xc5u\x02\x05\xad\x8f?'
p558
tp559
Rp560
sI61965019994
g3
(g47
S'\x00\x00\x00\x00\x00\x00\x00\x00'
p561
tp562
Rp563
sI61961078619
g3
(g47
S'\x00\x00\x00\x00\x00\x00\x00\x00'
p564
tp565
Rp566
sI61965019996
g3
(g47
S'\x12`{Y\xdd\xb3\x8f?'
p567
tp568
Rp569
sg27
g3
(g47
S'3\xe2\xd0\xcfz\x83\xc7='
p570
tp571
Rp572
sI61961024868
g3
(g47
S'\xbe\x0c\x8f\xff-h\x14@'
p573
tp574
Rp575
sI61965020009
g3
(g47
S'\x00\x00\x00\x00\x00\x00\x00\x00'
p576
tp577
Rp578
sI61965359983
g3
(g47
S'\xadx\xe3\n\x07\xf0\xfd='
p579
tp580
Rp581
sI61961024881
g3
(g47
S'\xf3\xea%\xeeE\x07\xe3?'
p582
tp583
Rp584
sI61965020019
g3
(g47
S'\xcf\xaa\x91\xa5\xee\xc1\x03>'
p585
tp586
Rp587
sg30
g3
(g47
S'\xdb{\xe4=\x88\x0b(@'
p588
tp589
Rp590
sI61965020021
g3
(g47
S'OE\xe8\xc1\x1f!W?'
p591
tp592
Rp593
sg33
g3
(g47
S'\x00\x00\x00\x00\x00\x00\x00\x00'
p594
tp595
Rp596
sI61965359991
g3
(g47
S'=?Z\xba\x0e\xc4\xf5?'
p597
tp598
Rp599
sg36
g3
(g47
S'+\xfa\x90\xcb\x02\xfb\xc7?'
p600
tp601
Rp602
sI61961024891
g3
(g47
S'\xd3z*Otk\x14@'
p603
tp604
Rp605
sI61965020029
g3
(g47
S'\xff,\x8a;\xa4\xaa\x0f='
p606
tp607
Rp608
sI61961024911
g3
(g47
S'\xab\xdf\x12\xe5\xa2\x90\xdf?'
p609
tp610
Rp611
sI61961024912
g3
(g47
S'\xda\x9cp\xe8\xfas\x04@'
p612
tp613
Rp614
sI61961024927
g3
(g47
S'\xa3.To\xe1\xeb\xf0?'
p615
tp616
Rp617
sI61961024929
g3
(g47
S'\x80\xe7\xef\x8d\x8cYD@'
p618
tp619
Rp620
sI61961024937
g3
(g47
S'fq@lJ\xb5\r@'
p621
tp622
Rp623
sI61961024938
g3
(g47
S'\xe6\x10\xf2F\x8b\xee\xe0?'
p624
tp625
Rp626
sI61961024943
g3
(g47
S'\xb3\x15e\xef2\xc1\x0e@'
p627
tp628
Rp629
sI61965360050
g3
(g47
S'W\xc1\x0fT\x86\xa0\xbe?'
p630
tp631
Rp632
sI61961024950
g3
(g47
S'B\x01\xa4h.9[?'
p633
tp634
Rp635
sI61961024951
g3
(g47
S'\x04\xd3\xd5\xc6\x0e\x93\x16@'
p636
tp637
Rp638
sI61964944313
g3
(g47
S'\xfd\x89\xdc\x82\x84\xd8H?'
p639
tp640
Rp641
sI61964979130
g3
(g47
S'\x00\x00\x00\x00\x00\x00\x00\x00'
p642
tp643
Rp644
sI61961024956
g3
(g47
S'B\xccu*\x04U\xff?'
p645
tp646
Rp647
sI61964979139
g3
(g47
S']\xe1a\xda\x1c!W?'
p648
tp649
Rp650
sI61961024968
g3
(g47
S'"\xd9v\x12\xf8-\xee?'
p651
tp652
Rp653
sI61964979150
g3
(g47
S'5\xbf\xee\xfc\xef\xf9\x95?'
p654
tp655
Rp656
sI61964979153
g3
(g47
S'#\xde\x14\x0c\xa6@\xdd?'
p657
tp658
Rp659
sI61964979154
g3
(g47
S'\x9bD\x05d\x8d\xc1\x8d?'
p660
tp661
Rp662
sg39
g3
(g47
S'\x14\x12\x1a\xac\x85t\xe2?'
p663
tp664
Rp665
sI61964979158
g3
(g47
S'\x10\xe3>\xd8sd\x0b>'
p666
tp667
Rp668
sI61960619991
g3
(g47
S'\x7f\xdau>\xb4\xf2\x05@'
p669
tp670
Rp671
sI61964979163
g3
(g47
S'\xae\x80\x96\xdc\x7f\xd8H?'
p672
tp673
Rp674
sI61964944350
g3
(g47
S'\xfa\x86\xc5\xb8\x1e!W?'
p675
tp676
Rp677
sg42
g3
(g47
S'\xe2\xb5\x890~\xb0\x88?'
p678
tp679
Rp680
sI413787380563
g3
(g47
S'a\xf4Mi\x16y\x00@'
p681
tp682
Rp683
ssS'avg_deg'
p684
(dp685
I61961025033
F0.020037654653039267
sI61961025054
F0.00914470145239376
sI61960946207
F0.014254975793437335
sI61961025059
F0.018894566971490046
sI61960946218
F0.011498117267348035
sg12
F0.0028913394298009684
sI61961025073
F0.0029585798816568034
sI61964961871
F0.001277568585260893
sg15
F0.0005379236148466918
sI61965020015
F0.0015465303926842388
sg18
F0.0003362022592791824
sI61964943979
F0.0004034427111350189
sI61964943982
F0.00047068316299085536
sI61964943984
F0.002689618074233459
sI61964943986
F0.0010758472296933835
sI61964943996
F0.002622377622377622
sI61964961925
F0.0004706831629908553
sI413791240838
F0.01533082302313072
sI61964961927
F0.0002689618074233459
sI61964972168
F0.002824098977945132
sI61964944011
F0.0004034427111350189
sI61964944018
F0.001815492200107585
sI61961024963
F0.013717052178590646
sI61964944027
F0.002084454007530931
sI61964944035
F0.0022861753630984403
sI61964944038
F0.0029585798816568047
sI61960946349
F0.005984400215169444
sI61964944046
F0.0027568585260892954
sI61961025202
F0.006118881118881113
sI14720303796
F0.0
sI61964944053
F0.0004034427111350189
sI61964944054
F0.002017213555675094
sI61964944057
F0.0002689618074233459
sg21
F0.0010086067778375472
sI61961078559
F0.002084454007530931
sI61964944064
F0.0018827326519634214
sI61964944067
F0.0003362022592791824
sI61961024887
F0.012506724045185583
sI61961353423
F0.020373856912318453
sI61965359909
F0.0019499731038192577
sI413791240929
F0.005648197955890264
sI61964944337
F0.001949973103819258
sI61961078506
F0.026089295320064553
sI61964944341
F0.0006724045185583648
sI61965359883
F0.0004034427111350189
sI61965359903
F0.0028240989779451317
sI61961263393
F0.0
sI61961078565
F0.019230769230769253
sI61961078566
F0.0024878967186659495
sI61961078573
F0.019298009682625065
sI61965359920
F0.0022861753630984403
sI61965019959
F0.0002689618074233459
sI61961024824
F0.016742872512103286
sI61965019962
F0.0005379236148466918
sI61965359937
F0.00047068316299085536
sI61961078595
F0.003899946207638515
sI61965359944
F0.0015465303926842388
sI61965359948
F0.0017482517482517485
sI61965019982
F0.0017482517482517483
sI61965019983
F0.0018154922001075847
sg24
F0.008270575578267887
sI61965019987
F0.0006051640667025283
sI61961024853
F0.01196880043033889
sI61965019992
F0.0018827326519634214
sI61965019994
F0.0002689618074233459
sI61961078619
F0.0
sI61965019996
F0.0010758472296933835
sg27
F0.0005379236148466918
sI61961024868
F0.01412049488972566
sI61965020009
F0.0003362022592791824
sI61965359983
F0.0021516944593867673
sI61961024881
F0.002084454007530931
sI61965020019
F0.0014792899408284023
sg30
F0.024475524475524486
sI61965020021
F0.001815492200107585
sg33
F0.0
sI61965359991
F0.0036309844002151695
sg36
F0.0007396449704142013
sI61961024891
F0.015667025282409895
sI61965020029
F0.0006724045185583647
sI61961024911
F0.006387842926304463
sI61961024912
F0.008875739644970414
sI61961024927
F0.006724045185583645
sI61961024929
F0.04505110274341045
sI61961024937
F0.018827326519634213
sI61961024938
F0.006791285637439482
sI61961024943
F0.015129101667563203
sI61965360050
F0.0014792899408284025
sI61961024950
F0.0009413663259817107
sI61961024951
F0.00914470145239376
sI61964944313
F0.0016137708445400755
sI61964979130
F0.0004034427111350189
sI61961024956
F0.007463690155997844
sI61964979139
F0.0016810112963959118
sI61961024968
F0.0069930069930069895
sI61964979150
F0.0018827326519634214
sI61964979153
F0.0009413663259817107
sI61964979154
F0.0018827326519634212
sg39
F0.009682625067240437
sI61964979158
F0.0021516944593867673
sI61960619991
F0.012641204948897256
sI61964979163
F0.0013448090371167294
sI61964944350
F0.0016137708445400755
sg42
F0.0010086067778375472
sI413787380563
F0.002891339429800968
ssS't_cl'
p686
(dp687
I61961025033
g3
(g47
S'\xee?c\xd0L4\xb8?'
p688
tp689
Rp690
sI61961025054
g3
(g47
S'\x91of\xc2%\xb0\xb3?'
p691
tp692
Rp693
sI61960946207
g3
(g47
S'\xc5\xe0\xe1ANF\xb5?'
p694
tp695
Rp696
sI61961025059
g3
(g47
S'\x0e\x85\xd3]\x81\x0c\xb8?'
p697
tp698
Rp699
sI61960946218
g3
(g47
S'\xf4R\xac>\x18Q\xb4?'
p700
tp701
Rp702
sg12
g3
(g47
S'\xa6@\xf5v\xa1t\x9e?'
p703
tp704
Rp705
sI61961025073
g3
(g47
S'wn\xc7\xd6T"\xb0?'
p706
tp707
Rp708
sI61964961871
g3
(g47
S'\x12PYG\xa0\x16\x99?'
p709
tp710
Rp711
sg15
g3
(g47
S'P\x16\xb2\x82N\xb4\x89?'
p712
tp713
Rp714
sI61965020015
g3
(g47
S'\xb9P\x046\x07G\x9a?'
p715
tp716
Rp717
sg18
g3
(g47
S'KG\xe5\x12&u\x91?'
p718
tp719
Rp720
sI61964943979
g3
(g47
S'A\x17\xab#\x96"\x98?'
p721
tp722
Rp723
sI61964943982
g3
(g47
S'\x8c\x87\xcd\x1cl\xb0\x8c?'
p724
tp725
Rp726
sI61964943984
g3
(g47
S'\xca5mx/8\x9e?'
p727
tp728
Rp729
sI61964943986
g3
(g47
S'\xd0\xf6\x00\xadh|\x99?'
p730
tp731
Rp732
sI61964943996
g3
(g47
S'\xb3\xeb\x80\x18\xfeD\x9d?'
p733
tp734
Rp735
sI61964961925
g3
(g47
S'\xa9\xc90&C\xf7\x91?'
p736
tp737
Rp738
sI413791240838
g3
(g47
S'=\x02$\xcc\xe5\xda\xb5?'
p739
tp740
Rp741
sI61964961927
g3
(g47
S'D\x0c\x1d\xb6\xa8\xf7\x97?'
p742
tp743
Rp744
sI61964972168
g3
(g47
S'\x11v\xedy\xc01\x9f?'
p745
tp746
Rp747
sI61964944011
g3
(g47
S'\x7f\x1e]\xea\x07u\x91?'
p748
tp749
Rp750
sI61964944018
g3
(g47
S'4S\xf8\xef\xc9W\xa1?'
p751
tp752
Rp753
sI61961024963
g3
(g47
S'\xb2\xf3\xdd\n\xc4T\xb6?'
p754
tp755
Rp756
sI61964944027
g3
(g47
S')?t\xfa\xe2n\x9b?'
p757
tp758
Rp759
sI61964944035
g3
(g47
S'\x91\x9f\xf3E\x91\x8e\x9d?'
p760
tp761
Rp762
sI61964944038
g3
(g47
S'\x85V\xcc\x81\xbaL\x9f?'
p763
tp764
Rp765
sI61960946349
g3
(g47
S'\xac\xc5\xe1\xa5\xf8\xf3\xb1?'
p766
tp767
Rp768
sI61964944046
g3
(g47
S'\x99\xd0i\xcd\xeeJ\x9e?'
p769
tp770
Rp771
sI61961025202
g3
(g47
S'8xs\xb6\x0f_\xac?'
p772
tp773
Rp774
sI14720303796
g3
(g47
S'\x00\x00\x00\x00\x00\x00\x00\x00'
p775
tp776
Rp777
sI61964944053
g3
(g47
S'\x0f\xc0q\xd2\xd6w\x94?'
p778
tp779
Rp780
sI61964944054
g3
(g47
S'\x92\r\x11\x12=\xcb\x9c?'
p781
tp782
Rp783
sI61964944057
g3
(g47
S'r\xfe\x8d\xce \xe8\x97?'
p784
tp785
Rp786
sg21
g3
(g47
S'{6\xd1\xc9\xb3)\x95?'
p787
tp788
Rp789
sI61961078559
g3
(g47
S'?\xd3\x99uH\x1f\xa9?'
p790
tp791
Rp792
sI61964944064
g3
(g47
S':\x9a6\xf0\xbd\x8a\x9c?'
p793
tp794
Rp795
sI61964944067
g3
(g47
S'~UY$\xf1k\x98?'
p796
tp797
Rp798
sI61961024887
g3
(g47
S'\xce\xd7\x95\xb6\x17\x17\xb5?'
p799
tp800
Rp801
sI61961353423
g3
(g47
S'[\x16\x8b1_\xfa\xb6?'
p802
tp803
Rp804
sI61965359909
g3
(g47
S'\xca~\xfe\xfe\x95J\x94?'
p805
tp806
Rp807
sI413791240929
g3
(g47
S'\x0bm\xdb\xb6\x04\xfa\xab?'
p808
tp809
Rp810
sI61964944337
g3
(g47
S'\xc7\x94c\xcd3!\x98?'
p811
tp812
Rp813
sI61961078506
g3
(g47
S'\xa4\xd5D\xdb[\xd0\xb9?'
p814
tp815
Rp816
sI61964944341
g3
(g47
S'\xad\xb1\x1av\xb3\xf9\x99?'
p817
tp818
Rp819
sI61965359883
g3
(g47
S'\xd2?\xc6\x8e\xb6\x83\x9b?'
p820
tp821
Rp822
sI61965359903
g3
(g47
S'\xf5\x189;_=\x98?'
p823
tp824
Rp825
sI61961263393
g3
(g47
S'\x00\x00\x00\x00\x00\x00\x00\x00'
p826
tp827
Rp828
sI61961078565
g3
(g47
S'H\xac\xeb\xb2\xa0\xa4\xb7?'
p829
tp830
Rp831
sI61961078566
g3
(g47
S'p\xd4\xa7\xf2\xd2\xc4\x92?'
p832
tp833
Rp834
sI61961078573
g3
(g47
S'+\xa7\x10\x85\xc2\x96\xb6?'
p835
tp836
Rp837
sI61965359920
g3
(g47
S'r\xff|\xf0a\x91\x9d?'
p838
tp839
Rp840
sI61965019959
g3
(g47
S'\xad3\xdb\x18\x11\x00\x9b?'
p841
tp842
Rp843
sI61961024824
g3
(g47
S'\xac\xab\xba\xbb\xb3\x88\xb5?'
p844
tp845
Rp846
sI61965019962
g3
(g47
S'a\x86\x16t\xdf\x84\x9b?'
p847
tp848
Rp849
sI61965359937
g3
(g47
S'\xc0\xaf\\\xe9\x0fh\x94?'
p850
tp851
Rp852
sI61961078595
g3
(g47
S'D9&\x1e\xdd\xf0\xb0?'
p853
tp854
Rp855
sI61965359944
g3
(g47
S'\x11\xdcO\x99\x18\xbd\x9f?'
p856
tp857
Rp858
sI61965359948
g3
(g47
S'{s\x13\x171\x12\x9b?'
p859
tp860
Rp861
sI61965019982
g3
(g47
S'\x1c\xaa\xcb\xe0\x85-\x8c?'
p862
tp863
Rp864
sI61965019983
g3
(g47
S'V\xb5\x98>\xb8|\x9c?'
p865
tp866
Rp867
sg24
g3
(g47
S'\x06c\xd6\xf7\xc4\x9f\xb3?'
p868
tp869
Rp870
sI61965019987
g3
(g47
S'p\xdf\x85\xdd\x82\x0f\x98?'
p871
tp872
Rp873
sI61961024853
g3
(g47
S'\xe4\x98^[\x104\xb5?'
p874
tp875
Rp876
sI61965019992
g3
(g47
S'\x9d\xcd\x1eL\x93\x82\x97?'
p877
tp878
Rp879
sI61965019994
g3
(g47
S'\x10 \x8c\xa35\\\x91?'
p880
tp881
Rp882
sI61961078619
g3
(g47
S'\x00\x00\x00\x00\x00\x00\x00\x00'
p883
tp884
Rp885
sI61965019996
g3
(g47
S'\xcdl\x9aa\x9de\x99?'
p886
tp887
Rp888
sg27
g3
(g47
S'\x8b\xf7l\xef;7\x95?'
p889
tp890
Rp891
sI61961024868
g3
(g47
S'\x9dK)\xc4\xd0\x12\xb6?'
p892
tp893
Rp894
sI61965020009
g3
(g47
S'Q]\xb7`\xf93\x91?'
p895
tp896
Rp897
sI61965359983
g3
(g47
S'\xea9\xc7\x7f\x93~\x9d?'
p898
tp899
Rp900
sI61961024881
g3
(g47
S'f\x02\xf7\x07\xb2\xe0\xa7?'
p901
tp902
Rp903
sI61965020019
g3
(g47
S'xe\x11q\xe1Z\x9b?'
p904
tp905
Rp906
sg30
g3
(g47
S'>\xb3\x98\xf0\x80\xf4\xb8?'
p907
tp908
Rp909
sI61965020021
g3
(g47
S'\xf3\x80B\xceW\x7f\x9b?'
p910
tp911
Rp912
sg33
g3
(g47
S'\x00\x00\x00\x00\x00\x00\x00\x00'
p913
tp914
Rp915
sI61965359991
g3
(g47
S'\x9fB9Pty\xaa?'
p916
tp917
Rp918
sg36
g3
(g47
S'\xed\xad\x80\xe9\xae\xab\x9c?'
p919
tp920
Rp921
sI61961024891
g3
(g47
S'\x9e\xd4L\x05q\xa8\xb7?'
p922
tp923
Rp924
sI61965020029
g3
(g47
S'\xd1^\xfb\x8e@\t\x94?'
p925
tp926
Rp927
sI61961024911
g3
(g47
S"\xdd\xbc\x05\x021'\xb1?"
p928
tp929
Rp930
sI61961024912
g3
(g47
S'o-\xdbt\xc0v\xb3?'
p931
tp932
Rp933
sI61961024927
g3
(g47
S'\xf6\xa7\xa5.\xda\xe2\xaf?'
p934
tp935
Rp936
sI61961024929
g3
(g47
S'|{\xf3i\xcb\xe3\xbe?'
p937
tp938
Rp939
sI61961024937
g3
(g47
S'\xa14\r\xed\xc3\xe7\xb6?'
p940
tp941
Rp942
sI61961024938
g3
(g47
S'\x84\x9e\xdeaJ\x14\xb1?'
p943
tp944
Rp945
sI61961024943
g3
(g47
S'\x96<\x9bQ-9\xb5?'
p946
tp947
Rp948
sI61965360050
g3
(g47
S'\x03Kj\x99\xf4\x04\x9e?'
p949
tp950
Rp951
sI61961024950
g3
(g47
S'\xcd\xa4\x1bx=*\x9c?'
p952
tp953
Rp954
sI61961024951
g3
(g47
S'\xa5\xedc\x9e\xcc\xcd\xb2?'
p955
tp956
Rp957
sI61964944313
g3
(g47
S'\xe5\x19\xd3\xa9\xb55\x9b?'
p958
tp959
Rp960
sI61964979130
g3
(g47
S'\xa1\xda\xc5w\x01r\x91?'
p961
tp962
Rp963
sI61961024956
g3
(g47
S'o\x07\x87\xdd\xe2`\xb2?'
p964
tp965
Rp966
sI61964979139
g3
(g47
S'\xe4\x10\xb7$\xa5U\x9b?'
p967
tp968
Rp969
sI61961024968
g3
(g47
S'RA\xdd\x8a\x8c.\xb2?'
p970
tp971
Rp972
sI61964979150
g3
(g47
S'\xb9\x950\xba*\x08\x98?'
p973
tp974
Rp975
sI61964979153
g3
(g47
S'\x92;T\xcf\xf8m\x98?'
p976
tp977
Rp978
sI61964979154
g3
(g47
S'jU\xf1\xd2Qr\x98?'
p979
tp980
Rp981
sg39
g3
(g47
S'\x1d\x94\xb2\xe7\x94\xc5\xa7?'
p982
tp983
Rp984
sI61964979158
g3
(g47
S'\xed\xf4\xf2\x89\xde\x14\x9a?'
p985
tp986
Rp987
sI61960619991
g3
(g47
S'\x13\x9f}\x06\xc5\xad\xb4?'
p988
tp989
Rp990
sI61964979163
g3
(g47
S'~\xde\xf8\x8cb\xe8\x99?'
p991
tp992
Rp993
sI61964944350
g3
(g47
S'\x1aI7\x97?\x10\x9b?'
p994
tp995
Rp996
sg42
g3
(g47
S'b\x19\x8cIf\xc3\x9c?'
p997
tp998
Rp999
sI413787380563
g3
(g47
S'C\xd4\x03\xeeZM\xa7?'
p1000
tp1001
Rp1002
ssS'avg_cl'
p1003
(dp1004
I61961025033
F0.04005076822450315
sI61961025054
F0.027356074016281238
sI61960946207
F0.03271633355095626
sI61961025059
F0.039789676834743375
sI61960946218
F0.029806060746671702
sg12
F0.005546009812836736
sI61961025073
F0.012872362867428044
sI61964961871
F0.004254559150146692
sg15
F0.001851876482053997
sI61965020015
F0.003918765920235788
sg18
F0.0030372512103281337
sI61964943979
F0.001859773265826229
sI61964943982
F0.002377562938548914
sI61964943984
F0.0054569409949933685
sI61964943986
F0.0042131169641067825
sI61964943996
F0.004285281793642998
sI61964961925
F0.0030812555802643034
sI413791240838
F0.03272083540324936
sI61964961927
F0.0019094587574887763
sI61964972168
F0.005569148674352295
sI61964944011
F0.003051623007916714
sI61964944018
F0.005232927214682138
sI61961024963
F0.03480665700153845
sI61964944027
F0.005096178218539851
sI61964944035
F0.005312587331818101
sI61964944038
F0.004828631041487319
sI61960946349
F0.02209508272200274
sI61964944046
F0.005590558352368553
sI61961025202
F0.013569407470522727
sI14720303796
F0.0
sI61964944053
F0.004797297032740905
sI61964944054
F0.006327749885442193
sI61964944057
F0.0019075024252539043
sg21
F0.00507855129315521
sI61961078559
F0.0069623410796023615
sI61964944064
F0.004483369194907657
sI61964944067
F0.0019622258083796546
sI61961024887
F0.02787510216008918
sI61961353423
F0.03193789605846375
sI61965359909
F0.0028689259458490233
sI413791240929
F0.016481117463410157
sI61964944337
F0.005586800738622601
sI61961078506
F0.04247245710083316
sI61964944341
F0.0033723362566994894
sI61965359883
F0.003709086403469732
sI61965359903
F0.003978144362759747
sI61961263393
F0.0
sI61961078565
F0.036017040917046814
sI61961078566
F0.006331377032501062
sI61961078573
F0.032675461636325
sI61965359920
F0.0069038561541279585
sI61965019959
F0.003679685495053913
sI61961024824
F0.031182590073455137
sI61965019962
F0.0038758374394576058
sI61965359937
F0.004839681594321268
sI61961078595
F0.01958845625266148
sI61965359944
F0.005842519217284696
sI61965359948
F0.003952444616121842
sI61965019982
F0.0026564129128231694
sI61965019983
F0.005254818552704442
sg24
F0.025595795615376317
sI61965019987
F0.004018571136641613
sI61961024853
F0.03140309880315059
sI61965019992
F0.005631740054816978
sI61965019994
F0.0029825278272023834
sI61961078619
F0.0
sI61965019996
F0.0035559454018681525
sg27
F0.0040595505892708685
sI61961024868
F0.03141265122590999
sI61965020009
F0.0030372512103281337
sI61965359983
F0.004502623731456979
sI61961024881
F0.005490957465827135
sI61965020019
F0.004338107121700112
sg30
F0.03889459576440296
sI61965020021
F0.005195824457782832
sg33
F0.0
sI61965359991
F0.010179061366070056
sg36
F0.001431649944574267
sI61961024891
F0.03996012540247033
sI61965020029
F0.0019549673656205423
sI61961024911
F0.018365343507282837
sI61961024912
F0.02630653093627807
sI61961024927
F0.022120122450365803
sI61961024929
F0.05658097288783689
sI61961024937
F0.033958976571214286
sI61961024938
F0.021264787750242677
sI61961024943
F0.029171718541905613
sI61965360050
F0.004929570883533448
sI61961024950
F0.004710790329222754
sI61961024951
F0.02261933936822292
sI61964944313
F0.005111426027608902
sI61964979130
F0.0030701990317374933
sI61961024956
F0.02357406653027993
sI61964979139
F0.005178694496319677
sI61961024968
F0.023711656793469198
sI61964979150
F0.0055392215119406535
sI61964979153
F0.0052210988444857664
sI61964979154
F0.005528911802808025
sg39
F0.006577929970596064
sI61964979158
F0.00438803835620708
sI61960619991
F0.0305089583006632
sI61964979163
F0.004892400161964413
sI61964944350
F0.005145072957050381
sg42
F0.0040762895998472486
sI413787380563
F0.00786419193594295
ssS'agg_bt'
p1005
(dp1006
I61961025033
F0.016149685679918507
sI61961025054
F0.002800984158126569
sI61960946207
F0.0006310731661144059
sI61961025059
F0.01984839895908778
sI61960946218
F0.012490559583924992
sg12
F0.004291006214246933
sI61961025073
F0.0022071165793872472
sI61964961871
F0.00038269958704625136
sg15
F0.0
sI61965020015
F0.0009649761558876282
sg18
F0.0
sI61964943979
F5.834578043315908e-06
sI61964943982
F1.945834214612958e-05
sI61964943984
F0.002921969235700224
sI61964943986
F0.0003328106433445478
sI61964943996
F0.0043600925995027654
sI61964961925
F7.312671147622604e-05
sI413791240838
F0.007281905675910558
sI61964961927
F0.0
sI61964972168
F0.003387031883074656
sI61964944011
F7.542349775359485e-05
sI61964944018
F0.002263030137252666
sI61961024963
F0.0008753924914404251
sI61964944027
F0.0016558844608720012
sI61964944035
F0.002112838786018344
sI61964944038
F0.004463420884942903
sI61960946349
F0.0006998252663064122
sI61964944046
F0.0026145456994308702
sI61961025202
F0.005822101965316955
sI14720303796
F0.0
sI61964944053
F0.0003119633824990172
sI61964944054
F0.0017477404866142019
sI61964944057
F0.0
sg21
F0.0011764697398372525
sI61961078559
F0.0024690212322005137
sI61964944064
F0.0009600747801740612
sI61964944067
F0.0
sI61961024887
F0.0011532057938512814
sI61961353423
F0.10833426225517918
sI61965359909
F0.0015222940795784536
sI413791240929
F0.009605421328651075
sI61964944337
F0.004777853758051355
sI61961078506
F0.03666812795285817
sI61964944341
F9.876180992685848e-05
sI61965359883
F1.8670649738610905e-05
sI61965359903
F0.004874173166547404
sI61961263393
F0.0
sI61961078565
F0.02396937468228842
sI61961078566
F6.0709954163694884e-05
sI61961078573
F0.06848863875004223
sI61965359920
F0.005351651701857134
sI61965019959
F0.0
sI61961024824
F0.0010681052216108965
sI61965019962
F3.058733337859551e-05
sI61965359937
F1.5558874782175753e-05
sI61961078595
F0.0005039606736611395
sI61965359944
F0.0008993136933651477
sI61965359948
F0.0011123948616689376
sI61965019982
F0.003084186386654903
sI61965019983
F0.0015066132279825738
sg24
F0.0004745185330706921
sI61965019987
F0.00018922695275310438
sI61961024853
F0.0012041381462166323
sI61965019992
F0.0012353320578566787
sI61965019994
F0.0
sI61961078619
F0.0
sI61965019996
F0.001030778644076507
sg27
F6.31325399993059e-05
sI61961024868
F0.0040039210618839334
sI61965020009
F1.5558874782175753e-05
sI61965359983
F0.00312244350088099
sI61961024881
F0.0050793346083400125
sI61965020019
F0.001216802599862402
sg30
F0.1003577185891802
sI61965020021
F0.0011070860809994552
sg33
F0.0
sI61965359991
F0.008317547323143468
sg36
F8.401792382374907e-05
sI61961024891
F0.0042313903168867345
sI61965020029
F0.0003390162315284274
sI61961024911
F0.0008511802317988793
sI61961024912
F0.005250495079716858
sI61961024927
F0.0007075115388805565
sI61961024929
F0.16947471129123173
sI61961024937
F0.003489470392599894
sI61961024938
F0.0002552958974497926
sI61961024943
F0.016485019611148424
sI61965360050
F0.0007342774650356978
sI61961024950
F0.0006955474805679473
sI61961024951
F0.004989053129057175
sI61964944313
F0.0011315695839533707
sI61964979130
F3.4229524520786655e-05
sI61961024956
F0.000980594150057228
sI61964979139
F0.0010182068091203417
sI61961024968
F0.0004883989449482099
sI61964979150
F0.0012288356217003533
sI61964979153
F0.0002517723140026174
sI61964979154
F0.0023134884506305665
sg39
F0.00591849201959469
sI61964979158
F0.0030166215768213512
sI61960619991
F0.00323262953179652
sI61964979163
F0.000816814135453584
sI61964944350
F0.0008028469239415619
sg42
F0.0010152330230283311
sI413787380563
F0.0005758382590368958
ssS'agg_deg'
p1007
(dp1008
I61961025033
F0.46153846153846156
sI61961025054
F0.27884615384615385
sI61960946207
F0.22115384615384617
sI61961025059
F0.5192307692307693
sI61960946218
F0.38461538461538464
sg12
F0.40384615384615385
sI61961025073
F0.21153846153846156
sI61964961871
F0.1826923076923077
sg15
F0.057692307692307696
sI61965020015
F0.22115384615384617
sg18
F0.038461538461538464
sI61964943979
F0.04807692307692308
sI61964943982
F0.06730769230769232
sI61964943984
F0.38461538461538464
sI61964943986
F0.13461538461538464
sI61964943996
F0.3653846153846154
sI61964961925
F0.057692307692307696
sI413791240838
F0.33653846153846156
sI61964961927
F0.038461538461538464
sI61964972168
F0.40384615384615385
sI61964944011
F0.057692307692307696
sI61964944018
F0.25961538461538464
sI61961024963
F0.25961538461538464
sI61964944027
F0.2884615384615385
sI61964944035
F0.3269230769230769
sI61964944038
F0.42307692307692313
sI61960946349
F0.22115384615384617
sI61964944046
F0.375
sI61961025202
F0.125
sI14720303796
F0.0
sI61964944053
F0.04807692307692308
sI61964944054
F0.2884615384615385
sI61964944057
F0.038461538461538464
sg21
F0.125
sI61961078559
F0.04807692307692308
sI61964944064
F0.2692307692307693
sI61964944067
F0.038461538461538464
sI61961024887
F0.22115384615384617
sI61961353423
F0.8365384615384616
sI61965359909
F0.27884615384615385
sI413791240929
F0.3653846153846154
sI61964944337
F0.2692307692307693
sI61961078506
F0.5961538461538461
sI61964944341
F0.06730769230769232
sI61965359883
F0.04807692307692308
sI61965359903
F0.40384615384615385
sI61961263393
F0.0
sI61961078565
F0.5480769230769231
sI61961078566
F0.10576923076923078
sI61961078573
F0.6923076923076923
sI61965359920
F0.2884615384615385
sI61965019959
F0.028846153846153848
sI61961024824
F0.3076923076923077
sI61965019962
F0.057692307692307696
sI61965359937
F0.04807692307692308
sI61961078595
F0.13461538461538464
sI61965359944
F0.21153846153846156
sI61965359948
F0.25
sI61965019982
F0.25
sI61965019983
F0.25961538461538464
sg24
F0.22115384615384617
sI61965019987
F0.08653846153846154
sI61961024853
F0.3076923076923077
sI61965019992
F0.25
sI61965019994
F0.028846153846153848
sI61961078619
F0.0
sI61965019996
F0.11538461538461539
sg27
F0.07692307692307693
sI61961024868
F0.31730769230769235
sI61965020009
F0.04807692307692308
sI61965359983
F0.3076923076923077
sI61961024881
F0.06730769230769232
sI61965020019
F0.21153846153846156
sg30
F0.826923076923077
sI61965020021
F0.2403846153846154
sg33
F0.0
sI61965359991
F0.25961538461538464
sg36
F0.038461538461538464
sI61961024891
F0.2403846153846154
sI61965020029
F0.08653846153846154
sI61961024911
F0.2692307692307693
sI61961024912
F0.3269230769230769
sI61961024927
F0.2403846153846154
sI61961024929
F0.9038461538461539
sI61961024937
F0.33653846153846156
sI61961024938
F0.22115384615384617
sI61961024943
F0.44230769230769235
sI61965360050
F0.19230769230769232
sI61961024950
F0.10576923076923078
sI61961024951
F0.22115384615384617
sI61964944313
F0.23076923076923078
sI61964979130
F0.04807692307692308
sI61961024956
F0.21153846153846156
sI61964979139
F0.22115384615384617
sI61961024968
F0.20192307692307693
sI61964979150
F0.25961538461538464
sI61964979153
F0.09615384615384616
sI61964979154
F0.2692307692307693
sg39
F0.11538461538461539
sI61964979158
F0.2980769230769231
sI61960619991
F0.2692307692307693
sI61964979163
F0.19230769230769232
sI61964944350
F0.21153846153846156
sg42
F0.125
sI413787380563
F0.21153846153846156
ss.