(dp0
S'agg_cl'
p1
(dp2
I61961025033
F0.2786803713527851
sI61961025054
F0.24866863905325443
sI61960946207
F0.26070099255583123
sI61961025059
F0.2693910256410256
sI61960946218
F0.26070099255583123
scnumpy.core.multiarray
scalar
p3
(cnumpy
dtype
p4
(S'i8'
p5
I0
I1
tp6
Rp7
(I3
S'<'
p8
NNNI-1
I-1
I0
tp9
bS'\xb2\x02fm\x0e\x00\x00\x00'
p10
tp11
Rp12
F0.0
sI61961025073
F0.22449252136752135
sI61964961871
F0.0
sg3
(g7
S'\xba%\x8cW`\x00\x00\x00'
p13
tp14
Rp15
F0.2099150849150849
sI61965020015
F0.0
sg3
(g7
S'\xd5\x8bfm\x0e\x00\x00\x00'
p16
tp17
Rp18
F0.0
sI61964943979
F0.0
sI61964943982
F0.0
sI61964943984
F0.0
sI61964943986
F0.0
sI61964943996
F0.0
sI61964961925
F0.0
sI413791240838
F0.2693910256410256
sI61964961927
F0.0
sI61964972168
F0.0
sI61964944011
F0.0
sI61964944018
F0.0
sI61961024963
F0.25656288156288154
sI61964944027
F0.0
sI61964944035
F0.0
sI61964944038
F0.0
sI61960946349
F0.24124569460390355
sI61964944046
F0.0
sI61961025202
F0.22141728134878821
sI14720303796
F0.0
sI61964944053
F0.0
sI61964944054
F0.0
sI61964944057
F0.0
sg3
(g7
S'\xba\x02fm\x0e\x00\x00\x00'
p19
tp20
Rp21
F0.0
sI61961078559
F0.20722386587771202
sI61964944064
F0.0
sI61964944067
F0.0
sI61961024887
F0.2525540865384615
sI61961353423
F0.2786803713527851
sI61965359909
F0.0
sI413791240929
F0.22765438786565548
sI61964944337
F0.0
sI61961078506
F0.2649747793190416
sI61964944341
F0.0
sI61965359883
F0.0
sI61965359903
F0.0
sI61961263393
F0.0
sI61961078565
F0.2938811188811189
sI61961078566
F0.22449252136752135
sI61961078573
F0.3049709724238026
sI61965359920
F0.0
sI61965019959
F0.0
sI61961024824
F0.27395697522816165
sI61965019962
F0.0
sI61965359937
F0.0
sI61961078595
F0.21267712550607287
sI61965359944
F0.0
sI61965359948
F0.0
sI61965019982
F0.0
sI61965019983
F0.0
sg3
(g7
S'R\x07+m\x0e\x00\x00\x00'
p22
tp23
Rp24
F0.24866863905325443
sI61965019987
F0.0
sI61961024853
F0.27395697522816165
sI61965019992
F0.0
sI61965019994
F0.0
sI61961078619
F0.0
sI61965019996
F0.0
sg3
(g7
S'`[lm\x0e\x00\x00\x00'
p25
tp26
Rp27
F0.0
sI61961024868
F0.26070099255583123
sI61965020009
F0.0
sI61965359983
F0.0
sI61961024881
F0.2099150849150849
sI61965020019
F0.0
sg3
(g7
S't5*m\x0e\x00\x00\x00'
p28
tp29
Rp30
F0.28863324175824173
sI61965020021
F0.0
sg3
(g7
S'v5*m\x0e\x00\x00\x00'
p31
tp32
Rp33
F0.0
sI61965359991
F0.2155128205128205
sg3
(g7
S'x5*m\x0e\x00\x00\x00'
p34
tp35
Rp36
F0.14828863796753705
sI61961024891
F0.24866863905325443
sI61965020029
F0.0
sI61961024911
F0.27395697522816165
sI61961024912
F0.2525540865384615
sI61961024927
F0.2693910256410256
sI61961024929
F0.3591880341880342
sI61961024937
F0.29932336182336183
sI61961024938
F0.2525540865384615
sI61961024943
F0.2525540865384615
sI61965360050
F0.0
sI61961024950
F0.0
sI61961024951
F0.2342530657748049
sI61964944313
F0.0
sI61964979130
F0.0
sI61961024956
F0.24866863905325443
sI61964979139
F0.0
sI61961024968
F0.22765438786565548
sI61964979150
F0.0
sI61964979153
F0.0
sI61964979154
F0.0
sg3
(g7
S'N\x07+m\x0e\x00\x00\x00'
p37
tp38
Rp39
F0.21267712550607287
sI61964979158
F0.0
sI61960619991
F0.2449009324009324
sI61964979163
F0.0
sI61964944350
F0.0
sg3
(g7
S'\xf2\x03fm\x0e\x00\x00\x00'
p40
tp41
Rp42
F0.0
sI413787380563
F0.1701417004048583
ssS't_deg'
p43
(dp44
I61961025033
g3
(g4
(S'f8'
p45
I0
I1
tp46
Rp47
(I3
S'<'
p48
NNNI-1
I-1
I0
tp49
bS'\xa13\xf2y\x910\x83?'
p50
tp51
Rp52
sI61961025054
g3
(g47
S'\x01\x1b[\xd2,\x19s?'
p53
tp54
Rp55
sI61960946207
g3
(g47
S'\xe9\xa7\xd70Q\xe5\x87?'
p56
tp57
Rp58
sI61961025059
g3
(g47
S'c\x80\xc2U\x99\xcc\x86?'
p59
tp60
Rp61
sI61960946218
g3
(g47
S'\xac\x82\x1c0\x01bu?'
p62
tp63
Rp64
sg12
g3
(g47
S'\x00\x00\x00\x00\x00\x00\x00\x00'
p65
tp66
Rp67
sI61961025073
g3
(g47
S'\x8d>m\x03\x87\xc7;?'
p68
tp69
Rp70
sI61964961871
g3
(g47
S'\x00\x00\x00\x00\x00\x00\x00\x00'
p71
tp72
Rp73
sg15
g3
(g47
S'`\x02\xc4*\xc8\x013?'
p74
tp75
Rp76
sI61965020015
g3
(g47
S'\x00\x00\x00\x00\x00\x00\x00\x00'
p77
tp78
Rp79
sg18
g3
(g47
S'\x00\x00\x00\x00\x00\x00\x00\x00'
p80
tp81
Rp82
sI61964943979
g3
(g47
S'\x00\x00\x00\x00\x00\x00\x00\x00'
p83
tp84
Rp85
sI61964943982
g3
(g47
S'\x00\x00\x00\x00\x00\x00\x00\x00'
p86
tp87
Rp88
sI61964943984
g3
(g47
S'\x00\x00\x00\x00\x00\x00\x00\x00'
p89
tp90
Rp91
sI61964943986
g3
(g47
S'\x00\x00\x00\x00\x00\x00\x00\x00'
p92
tp93
Rp94
sI61964943996
g3
(g47
S'\x00\x00\x00\x00\x00\x00\x00\x00'
p95
tp96
Rp97
sI61964961925
g3
(g47
S'\x00\x00\x00\x00\x00\x00\x00\x00'
p98
tp99
Rp100
sI413791240838
g3
(g47
S'\\\xaf\x96\xca\xfaex?'
p101
tp102
Rp103
sI61964961927
g3
(g47
S'\x00\x00\x00\x00\x00\x00\x00\x00'
p104
tp105
Rp106
sI61964972168
g3
(g47
S'\x00\x00\x00\x00\x00\x00\x00\x00'
p107
tp108
Rp109
sI61964944011
g3
(g47
S'\x00\x00\x00\x00\x00\x00\x00\x00'
p110
tp111
Rp112
sI61964944018
g3
(g47
S'\x00\x00\x00\x00\x00\x00\x00\x00'
p113
tp114
Rp115
sI61961024963
g3
(g47
S'\xe9\xee\x91B\xa5\xd5t?'
p116
tp117
Rp118
sI61964944027
g3
(g47
S'\x00\x00\x00\x00\x00\x00\x00\x00'
p119
tp120
Rp121
sI61964944035
g3
(g47
S'\x00\x00\x00\x00\x00\x00\x00\x00'
p122
tp123
Rp124
sI61964944038
g3
(g47
S'\x00\x00\x00\x00\x00\x00\x00\x00'
p125
tp126
Rp127
sI61960946349
g3
(g47
S'U\xb3\x99tX\xd0`?'
p128
tp129
Rp130
sI61964944046
g3
(g47
S'\x00\x00\x00\x00\x00\x00\x00\x00'
p131
tp132
Rp133
sI61961025202
g3
(g47
S'HH\x86w\x98\xddj?'
p134
tp135
Rp136
sI14720303796
g3
(g47
S'\x00\x00\x00\x00\x00\x00\x00\x00'
p137
tp138
Rp139
sI61964944053
g3
(g47
S'\x00\x00\x00\x00\x00\x00\x00\x00'
p140
tp141
Rp142
sI61964944054
g3
(g47
S'\x00\x00\x00\x00\x00\x00\x00\x00'
p143
tp144
Rp145
sI61964944057
g3
(g47
S'\x00\x00\x00\x00\x00\x00\x00\x00'
p146
tp147
Rp148
sg21
g3
(g47
S'\x00\x00\x00\x00\x00\x00\x00\x00'
p149
tp150
Rp151
sI61961078559
g3
(g47
S'ze\xd1\xd3\xcc\x1fX?'
p152
tp153
Rp154
sI61964944064
g3
(g47
S'\x00\x00\x00\x00\x00\x00\x00\x00'
p155
tp156
Rp157
sI61964944067
g3
(g47
S'\x00\x00\x00\x00\x00\x00\x00\x00'
p158
tp159
Rp160
sI61961024887
g3
(g47
S'\x99\x1b\x0c\xdd\x9e\xd9w?'
p161
tp162
Rp163
sI61961353423
g3
(g47
S'T%%Q\xb0\xefv?'
p164
tp165
Rp166
sI61965359909
g3
(g47
S'\x00\x00\x00\x00\x00\x00\x00\x00'
p167
tp168
Rp169
sI413791240929
g3
(g47
S'\x9bRP\xf6\x1b\xb4N?'
p170
tp171
Rp172
sI61964944337
g3
(g47
S'\x00\x00\x00\x00\x00\x00\x00\x00'
p173
tp174
Rp175
sI61961078506
g3
(g47
S'O\xd2\xf7\xf0\xe2S\x8c?'
p176
tp177
Rp178
sI61964944341
g3
(g47
S'\x00\x00\x00\x00\x00\x00\x00\x00'
p179
tp180
Rp181
sI61965359883
g3
(g47
S'\x00\x00\x00\x00\x00\x00\x00\x00'
p182
tp183
Rp184
sI61965359903
g3
(g47
S'\x00\x00\x00\x00\x00\x00\x00\x00'
p185
tp186
Rp187
sI61961263393
g3
(g47
S'\x00\x00\x00\x00\x00\x00\x00\x00'
p188
tp189
Rp190
sI61961078565
g3
(g47
S'\xe5\x9bd\xe2\xd79z?'
p191
tp192
Rp193
sI61961078566
g3
(g47
S'\x9dn9=lub?'
p194
tp195
Rp196
sI61961078573
g3
(g47
S'ti\xd4}*\x8a\x80?'
p197
tp198
Rp199
sI61965359920
g3
(g47
S'\x00\x00\x00\x00\x00\x00\x00\x00'
p200
tp201
Rp202
sI61965019959
g3
(g47
S'\x00\x00\x00\x00\x00\x00\x00\x00'
p203
tp204
Rp205
sI61961024824
g3
(g47
S'&\xcd\x921\xa1hz?'
p206
tp207
Rp208
sI61965019962
g3
(g47
S'\x00\x00\x00\x00\x00\x00\x00\x00'
p209
tp210
Rp211
sI61965359937
g3
(g47
S'\x00\x00\x00\x00\x00\x00\x00\x00'
p212
tp213
Rp214
sI61961078595
g3
(g47
S'\x82\xefBM\x17\x96Y?'
p215
tp216
Rp217
sI61965359944
g3
(g47
S'\x00\x00\x00\x00\x00\x00\x00\x00'
p218
tp219
Rp220
sI61965359948
g3
(g47
S'\x00\x00\x00\x00\x00\x00\x00\x00'
p221
tp222
Rp223
sI61965019982
g3
(g47
S'\x00\x00\x00\x00\x00\x00\x00\x00'
p224
tp225
Rp226
sI61965019983
g3
(g47
S'\x00\x00\x00\x00\x00\x00\x00\x00'
p227
tp228
Rp229
sg24
g3
(g47
S'\x03R\x9f\xeb\xa9\xf3i?'
p230
tp231
Rp232
sI61965019987
g3
(g47
S'\x00\x00\x00\x00\x00\x00\x00\x00'
p233
tp234
Rp235
sI61961024853
g3
(g47
S'\xb5\x9a\x02\xcd\xf3\xb8p?'
p236
tp237
Rp238
sI61965019992
g3
(g47
S'\x00\x00\x00\x00\x00\x00\x00\x00'
p239
tp240
Rp241
sI61965019994
g3
(g47
S'\x00\x00\x00\x00\x00\x00\x00\x00'
p242
tp243
Rp244
sI61961078619
g3
(g47
S'\x00\x00\x00\x00\x00\x00\x00\x00'
p245
tp246
Rp247
sI61965019996
g3
(g47
S'\x00\x00\x00\x00\x00\x00\x00\x00'
p248
tp249
Rp250
sg27
g3
(g47
S'\x00\x00\x00\x00\x00\x00\x00\x00'
p251
tp252
Rp253
sI61961024868
g3
(g47
S'\x08\xa5\xccKw\x8ft?'
p254
tp255
Rp256
sI61965020009
g3
(g47
S'\x00\x00\x00\x00\x00\x00\x00\x00'
p257
tp258
Rp259
sI61965359983
g3
(g47
S'\x00\x00\x00\x00\x00\x00\x00\x00'
p260
tp261
Rp262
sI61961024881
g3
(g47
S'\xdb\xda\xaeO\x10\xe9Q?'
p263
tp264
Rp265
sI61965020019
g3
(g47
S'\x00\x00\x00\x00\x00\x00\x00\x00'
p266
tp267
Rp268
sg30
g3
(g47
S'ti\xd4}*\x8a\x80?'
p269
tp270
Rp271
sI61965020021
g3
(g47
S'\x00\x00\x00\x00\x00\x00\x00\x00'
p272
tp273
Rp274
sg33
g3
(g47
S'\x00\x00\x00\x00\x00\x00\x00\x00'
p275
tp276
Rp277
sI61965359991
g3
(g47
S's\xdb_Z\x82\xa9V?'
p278
tp279
Rp280
sg36
g3
(g47
S'YxR\xb1}\x8b\x11?'
p281
tp282
Rp283
sI61961024891
g3
(g47
S'd\x0e7yA\xad\x80?'
p284
tp285
Rp286
sI61965020029
g3
(g47
S'\x00\x00\x00\x00\x00\x00\x00\x00'
p287
tp288
Rp289
sI61961024911
g3
(g47
S's\xdb_Z\x82\xa9f?'
p290
tp291
Rp292
sI61961024912
g3
(g47
S'\x98\x8d\x97\xb9\xf6\xf8]?'
p293
tp294
Rp295
sI61961024927
g3
(g47
S'\x9bRP\xf6\x1b\xb4n?'
p296
tp297
Rp298
sI61961024929
g3
(g47
S'i\xcb\xb49{]\x96?'
p299
tp300
Rp301
sI61961024937
g3
(g47
S'\x99\x1b\x0c\xdd\x9e\xd9w?'
p302
tp303
Rp304
sI61961024938
g3
(g47
S'\x9a\xa9\x80\x00G\xbaq?'
p305
tp306
Rp307
sI61961024943
g3
(g47
S'"\x08\xda\xf4{\xady?'
p308
tp309
Rp310
sI61965360050
g3
(g47
S'\x00\x00\x00\x00\x00\x00\x00\x00'
p311
tp312
Rp313
sI61961024950
g3
(g47
S'\x00\x00\x00\x00\x00\x00\x00\x00'
p314
tp315
Rp316
sI61961024951
g3
(g47
S'U\xb3\x99tX\xd0p?'
p317
tp318
Rp319
sI61964944313
g3
(g47
S'\x00\x00\x00\x00\x00\x00\x00\x00'
p320
tp321
Rp322
sI61964979130
g3
(g47
S'\x00\x00\x00\x00\x00\x00\x00\x00'
p323
tp324
Rp325
sI61961024956
g3
(g47
S'\xe6)\xd9\x05\x80\x1ad?'
p326
tp327
Rp328
sI61964979139
g3
(g47
S'\x00\x00\x00\x00\x00\x00\x00\x00'
p329
tp330
Rp331
sI61961024968
g3
(g47
S'A\xbe\x14\xfeMgi?'
p332
tp333
Rp334
sI61964979150
g3
(g47
S'\x00\x00\x00\x00\x00\x00\x00\x00'
p335
tp336
Rp337
sI61964979153
g3
(g47
S'\x00\x00\x00\x00\x00\x00\x00\x00'
p338
tp339
Rp340
sI61964979154
g3
(g47
S'\x00\x00\x00\x00\x00\x00\x00\x00'
p341
tp342
Rp343
sg39
g3
(g47
S'\x0e\xa1\xc9\xa1\x19%\\?'
p344
tp345
Rp346
sI61964979158
g3
(g47
S'\x00\x00\x00\x00\x00\x00\x00\x00'
p347
tp348
Rp349
sI61960619991
g3
(g47
S'\xa0\xa5}V\xe9Oy?'
p350
tp351
Rp352
sI61964979163
g3
(g47
S'\x00\x00\x00\x00\x00\x00\x00\x00'
p353
tp354
Rp355
sI61964944350
g3
(g47
S'\x00\x00\x00\x00\x00\x00\x00\x00'
p356
tp357
Rp358
sg42
g3
(g47
S'\x00\x00\x00\x00\x00\x00\x00\x00'
p359
tp360
Rp361
sI413787380563
g3
(g47
S'YxR\xb1}\x8b\x11?'
p362
tp363
Rp364
ssS'avg_bt'
p365
(dp366
I61961025033
F0.0008599159392981763
sI61961025054
F0.0006108299249619372
sI61960946207
F0.0016616520622661816
sI61961025059
F0.0010604945915630346
sI61960946218
F0.0002399257281787449
sg12
F0.0
sI61961025073
F1.5226748770585378e-05
sI61964961871
F0.0
sg15
F8.637551369114127e-06
sI61965020015
F0.0
sg18
F0.0
sI61964943979
F0.0
sI61964943982
F0.0
sI61964943984
F0.0
sI61964943986
F0.0
sI61964943996
F0.0
sI61964961925
F0.0
sI413791240838
F0.0006999593797887921
sI61964961927
F0.0
sI61964972168
F0.0
sI61964944011
F0.0
sI61964944018
F0.0
sI61961024963
F0.0006660605024200305
sI61964944027
F0.0
sI61964944035
F0.0
sI61964944038
F0.0
sI61960946349
F0.00012572000563231998
sI61964944046
F0.0
sI61961025202
F0.0001391681269421003
sI14720303796
F0.0
sI61964944053
F0.0
sI61964944054
F0.0
sI61964944057
F0.0
sg21
F0.0
sI61961078559
F7.012787631353621e-05
sI61964944064
F0.0
sI61964944067
F0.0
sI61961024887
F0.00031559605220949955
sI61961353423
F0.0005053312650222164
sI61965359909
F0.0
sI413791240929
F2.2516275500980298e-05
sI61964944337
F0.0
sI61961078506
F0.0009974544082140728
sI61964944341
F0.0
sI61965359883
F0.0
sI61965359903
F0.0
sI61961263393
F0.0
sI61961078565
F0.00027044867096852934
sI61961078566
F0.00012545601654603684
sI61961078573
F0.0009092102503304698
sI61965359920
F0.0
sI61965019959
F0.0
sI61961024824
F0.0007767427738354913
sI61965019962
F0.0
sI61965359937
F0.0
sI61961078595
F0.00011742406112903122
sI61965359944
F0.0
sI61965359948
F0.0
sI61965019982
F0.0
sI61965019983
F0.0
sg24
F0.00016411999328895942
sI61965019987
F0.0
sI61961024853
F0.00026911436317087
sI61965019992
F0.0
sI61965019994
F0.0
sI61961078619
F0.0
sI61965019996
F0.0
sg27
F0.0
sI61961024868
F0.0004704451751176838
sI61965020009
F0.0
sI61965359983
F0.0
sI61961024881
F3.028178880790779e-05
sI61965020019
F0.0
sg30
F0.00035834149398300714
sI61965020021
F0.0
sg33
F0.0
sI61965359991
F2.9924403981124635e-05
sg36
F0.0
sI61961024891
F0.0002838258678479839
sI61965020029
F0.0
sI61961024911
F0.00022492462630630528
sI61961024912
F0.0001267766140606453
sI61961024927
F0.0002469017107003719
sI61961024929
F0.0018429005253468467
sI61961024937
F0.0004515007133205994
sI61961024938
F0.0004546676941395542
sI61961024943
F0.0006174422377293208
sI61965360050
F0.0
sI61961024950
F0.0
sI61961024951
F0.0005037537680634565
sI61964944313
F0.0
sI61964979130
F0.0
sI61961024956
F9.976298746108698e-05
sI61964979139
F0.0
sI61961024968
F0.0002704974495373353
sI61964979150
F0.0
sI61964979153
F0.0
sI61964979154
F0.0
sg39
F3.733459528855199e-05
sI61964979158
F0.0
sI61960619991
F0.0004723246912612312
sI61964979163
F0.0
sI61964944350
F0.0
sg42
F0.0
sI413787380563
F0.0
ssS't_bt'
p367
(dp368
I61961025033
g3
(g47
S'=fC\xf6\xcb+\xe0?'
p369
tp370
Rp371
sI61961025054
g3
(g47
S"'\x1a p\xdeE\xe4?"
p372
tp373
Rp374
sI61960946207
g3
(g47
S'4\xa6\xb8{a7\xf3?'
p375
tp376
Rp377
sI61961025059
g3
(g47
S')\xd7\xdb8o\x84\xe1?'
p378
tp379
Rp380
sI61960946218
g3
(g47
S'\x83\xd8D\xaf\x8e_\xcb?'
p381
tp382
Rp383
sg12
g3
(g47
S'\x00\x00\x00\x00\x00\x00\x00\x00'
p384
tp385
Rp386
sI61961025073
g3
(g47
S'g\x87\xc5\x08\xe1\xcf\xb7?'
p387
tp388
Rp389
sI61964961871
g3
(g47
S'\x00\x00\x00\x00\x00\x00\x00\x00'
p390
tp391
Rp392
sg15
g3
(g47
S'\x0f\x103\xf7\x05\x99\x9a?'
p393
tp394
Rp395
sI61965020015
g3
(g47
S'\x00\x00\x00\x00\x00\x00\x00\x00'
p396
tp397
Rp398
sg18
g3
(g47
S'\x00\x00\x00\x00\x00\x00\x00\x00'
p399
tp400
Rp401
sI61964943979
g3
(g47
S'\x00\x00\x00\x00\x00\x00\x00\x00'
p402
tp403
Rp404
sI61964943982
g3
(g47
S'\x00\x00\x00\x00\x00\x00\x00\x00'
p405
tp406
Rp407
sI61964943984
g3
(g47
S'\x00\x00\x00\x00\x00\x00\x00\x00'
p408
tp409
Rp410
sI61964943986
g3
(g47
S'\x00\x00\x00\x00\x00\x00\x00\x00'
p411
tp412
Rp413
sI61964943996
g3
(g47
S'\x00\x00\x00\x00\x00\x00\x00\x00'
p414
tp415
Rp416
sI61964961925
g3
(g47
S'\x00\x00\x00\x00\x00\x00\x00\x00'
p417
tp418
Rp419
sI413791240838
g3
(g47
S'\x10\x1ev97F\xf1?'
p420
tp421
Rp422
sI61964961927
g3
(g47
S'\x00\x00\x00\x00\x00\x00\x00\x00'
p423
tp424
Rp425
sI61964972168
g3
(g47
S'\x00\x00\x00\x00\x00\x00\x00\x00'
p426
tp427
Rp428
sI61964944011
g3
(g47
S'\x00\x00\x00\x00\x00\x00\x00\x00'
p429
tp430
Rp431
sI61964944018
g3
(g47
S'\x00\x00\x00\x00\x00\x00\x00\x00'
p432
tp433
Rp434
sI61961024963
g3
(g47
S'\xa2\x1f}\xedPg\xde?'
p435
tp436
Rp437
sI61964944027
g3
(g47
S'\x00\x00\x00\x00\x00\x00\x00\x00'
p438
tp439
Rp440
sI61964944035
g3
(g47
S'\x00\x00\x00\x00\x00\x00\x00\x00'
p441
tp442
Rp443
sI61964944038
g3
(g47
S'\x00\x00\x00\x00\x00\x00\x00\x00'
p444
tp445
Rp446
sI61960946349
g3
(g47
S'o\xa1\xaa\x0e~\xfa\xd6?'
p447
tp448
Rp449
sI61964944046
g3
(g47
S'\x00\x00\x00\x00\x00\x00\x00\x00'
p450
tp451
Rp452
sI61961025202
g3
(g47
S'T\x92\x8f\xb3\x85\xbb\xe2?'
p453
tp454
Rp455
sI14720303796
g3
(g47
S'\x00\x00\x00\x00\x00\x00\x00\x00'
p456
tp457
Rp458
sI61964944053
g3
(g47
S'\x00\x00\x00\x00\x00\x00\x00\x00'
p459
tp460
Rp461
sI61964944054
g3
(g47
S'\x00\x00\x00\x00\x00\x00\x00\x00'
p462
tp463
Rp464
sI61964944057
g3
(g47
S'\x00\x00\x00\x00\x00\x00\x00\x00'
p465
tp466
Rp467
sg21
g3
(g47
S'\x00\x00\x00\x00\x00\x00\x00\x00'
p468
tp469
Rp470
sI61961078559
g3
(g47
S'T\xb1\x9eU Q\xd1?'
p471
tp472
Rp473
sI61964944064
g3
(g47
S'\x00\x00\x00\x00\x00\x00\x00\x00'
p474
tp475
Rp476
sI61964944067
g3
(g47
S'\x00\x00\x00\x00\x00\x00\x00\x00'
p477
tp478
Rp479
sI61961024887
g3
(g47
S'#m\x10\x1c\xf9\xe3\xde?'
p480
tp481
Rp482
sI61961353423
g3
(g47
S'W\xa89\xee\x9d\x13\xda?'
p483
tp484
Rp485
sI61965359909
g3
(g47
S'\x00\x00\x00\x00\x00\x00\x00\x00'
p486
tp487
Rp488
sI413791240929
g3
(g47
S'\xe4\x89E\xd4$`\xd3?'
p489
tp490
Rp491
sI61964944337
g3
(g47
S'\x00\x00\x00\x00\x00\x00\x00\x00'
p492
tp493
Rp494
sI61961078506
g3
(g47
S'\x16\x1f\x17\xcc\x90\x9a\xed?'
p495
tp496
Rp497
sI61964944341
g3
(g47
S'\x00\x00\x00\x00\x00\x00\x00\x00'
p498
tp499
Rp500
sI61965359883
g3
(g47
S'\x00\x00\x00\x00\x00\x00\x00\x00'
p501
tp502
Rp503
sI61965359903
g3
(g47
S'\x00\x00\x00\x00\x00\x00\x00\x00'
p504
tp505
Rp506
sI61961263393
g3
(g47
S'\x00\x00\x00\x00\x00\x00\x00\x00'
p507
tp508
Rp509
sI61961078565
g3
(g47
S'\xc9\xa3\xc8{\xa8c\xd4?'
p510
tp511
Rp512
sI61961078566
g3
(g47
S'\xb9\xd7\xee,A\xbc\xc1?'
p513
tp514
Rp515
sI61961078573
g3
(g47
S'\xe8\x85\xc6n\xc8\x1d\xda?'
p516
tp517
Rp518
sI61965359920
g3
(g47
S'\x00\x00\x00\x00\x00\x00\x00\x00'
p519
tp520
Rp521
sI61965019959
g3
(g47
S'\x00\x00\x00\x00\x00\x00\x00\x00'
p522
tp523
Rp524
sI61961024824
g3
(g47
S'E\xc1\xef\x9e0\xb5\xf1?'
p525
tp526
Rp527
sI61965019962
g3
(g47
S'\x00\x00\x00\x00\x00\x00\x00\x00'
p528
tp529
Rp530
sI61965359937
g3
(g47
S'\x00\x00\x00\x00\x00\x00\x00\x00'
p531
tp532
Rp533
sI61961078595
g3
(g47
S'\x94\xe7a!\xa8r\xbe?'
p534
tp535
Rp536
sI61965359944
g3
(g47
S'\x00\x00\x00\x00\x00\x00\x00\x00'
p537
tp538
Rp539
sI61965359948
g3
(g47
S'\x00\x00\x00\x00\x00\x00\x00\x00'
p540
tp541
Rp542
sI61965019982
g3
(g47
S'\x00\x00\x00\x00\x00\x00\x00\x00'
p543
tp544
Rp545
sI61965019983
g3
(g47
S'\x00\x00\x00\x00\x00\x00\x00\x00'
p546
tp547
Rp548
sg24
g3
(g47
S'R\xe5\xd0C\x1a\xe2\xc6?'
p549
tp550
Rp551
sI61965019987
g3
(g47
S'\x00\x00\x00\x00\x00\x00\x00\x00'
p552
tp553
Rp554
sI61961024853
g3
(g47
S'\x95\xe0J\x8dX\x8b\xd2?'
p555
tp556
Rp557
sI61965019992
g3
(g47
S'\x00\x00\x00\x00\x00\x00\x00\x00'
p558
tp559
Rp560
sI61965019994
g3
(g47
S'\x00\x00\x00\x00\x00\x00\x00\x00'
p561
tp562
Rp563
sI61961078619
g3
(g47
S'\x00\x00\x00\x00\x00\x00\x00\x00'
p564
tp565
Rp566
sI61965019996
g3
(g47
S'\x00\x00\x00\x00\x00\x00\x00\x00'
p567
tp568
Rp569
sg27
g3
(g47
S'\x00\x00\x00\x00\x00\x00\x00\x00'
p570
tp571
Rp572
sI61961024868
g3
(g47
S'N\x05\xac\xf3\t\xeb\xe4?'
p573
tp574
Rp575
sI61965020009
g3
(g47
S'\x00\x00\x00\x00\x00\x00\x00\x00'
p576
tp577
Rp578
sI61965359983
g3
(g47
S'\x00\x00\x00\x00\x00\x00\x00\x00'
p579
tp580
Rp581
sI61961024881
g3
(g47
S'\x85I\xd0\xeeYn\xd6?'
p582
tp583
Rp584
sI61965020019
g3
(g47
S'\x00\x00\x00\x00\x00\x00\x00\x00'
p585
tp586
Rp587
sg30
g3
(g47
S'\xc3\xae\x13\xa6\xad\xa7\xd2?'
p588
tp589
Rp590
sI61965020021
g3
(g47
S'\x00\x00\x00\x00\x00\x00\x00\x00'
p591
tp592
Rp593
sg33
g3
(g47
S'\x00\x00\x00\x00\x00\x00\x00\x00'
p594
tp595
Rp596
sI61965359991
g3
(g47
S'X\xb0fe6\xd4\xc1?'
p597
tp598
Rp599
sg36
g3
(g47
S'\x80P\n\x0c\xac\xe0\xa7:'
p600
tp601
Rp602
sI61961024891
g3
(g47
S'b30\x8c\xfd.\xd4?'
p603
tp604
Rp605
sI61965020029
g3
(g47
S'\x00\x00\x00\x00\x00\x00\x00\x00'
p606
tp607
Rp608
sI61961024911
g3
(g47
S'0\x90\x90t(w\xc0?'
p609
tp610
Rp611
sI61961024912
g3
(g47
S'\xb0\xfb\xae\xe8H\x11\xbf?'
p612
tp613
Rp614
sI61961024927
g3
(g47
S',\x8eAP\xbd\x91\xc0?'
p615
tp616
Rp617
sI61961024929
g3
(g47
S'f&&\x15\xd5v\x02@'
p618
tp619
Rp620
sI61961024937
g3
(g47
S'\xa8az\x93\xcdN\xe9?'
p621
tp622
Rp623
sI61961024938
g3
(g47
S'\xb3\x05\x91y\xce\xdc\xdc?'
p624
tp625
Rp626
sI61961024943
g3
(g47
S'\x95\xe5\xc9g2\xae\xe4?'
p627
tp628
Rp629
sI61965360050
g3
(g47
S'\x00\x00\x00\x00\x00\x00\x00\x00'
p630
tp631
Rp632
sI61961024950
g3
(g47
S'\x00\x00\x00\x00\x00\x00\x00\x00'
p633
tp634
Rp635
sI61961024951
g3
(g47
S'\xca\xda\xbf\xbe^\xb4\xf0?'
p636
tp637
Rp638
sI61964944313
g3
(g47
S'\x00\x00\x00\x00\x00\x00\x00\x00'
p639
tp640
Rp641
sI61964979130
g3
(g47
S'\x00\x00\x00\x00\x00\x00\x00\x00'
p642
tp643
Rp644
sI61961024956
g3
(g47
S'\x98\xd1\xcf\xc9\x03l\xb6?'
p645
tp646
Rp647
sI61964979139
g3
(g47
S'\x00\x00\x00\x00\x00\x00\x00\x00'
p648
tp649
Rp650
sI61961024968
g3
(g47
S'\x1e1\xfe\x89\xc4p\xdc?'
p651
tp652
Rp653
sI61964979150
g3
(g47
S'\x00\x00\x00\x00\x00\x00\x00\x00'
p654
tp655
Rp656
sI61964979153
g3
(g47
S'\x00\x00\x00\x00\x00\x00\x00\x00'
p657
tp658
Rp659
sI61964979154
g3
(g47
S'\x00\x00\x00\x00\x00\x00\x00\x00'
p660
tp661
Rp662
sg39
g3
(g47
S'<\x8c\xf4\xb3\x04\x0f\xce?'
p663
tp664
Rp665
sI61964979158
g3
(g47
S'\x00\x00\x00\x00\x00\x00\x00\x00'
p666
tp667
Rp668
sI61960619991
g3
(g47
S'\xd0+NE\xd1\r\xd9?'
p669
tp670
Rp671
sI61964979163
g3
(g47
S'\x00\x00\x00\x00\x00\x00\x00\x00'
p672
tp673
Rp674
sI61964944350
g3
(g47
S'\x00\x00\x00\x00\x00\x00\x00\x00'
p675
tp676
Rp677
sg42
g3
(g47
S'\x00\x00\x00\x00\x00\x00\x00\x00'
p678
tp679
Rp680
sI413787380563
g3
(g47
S'\x00\x00\x00\x00\x00\x00\x00\x00'
p681
tp682
Rp683
ssS'avg_deg'
p684
(dp685
I61961025033
F0.00992771729430658
sI61961025054
F0.004662680706764233
sI61960946207
F0.011667856505443485
sI61961025059
F0.011266285918258033
sI61960946218
F0.0052204176334106735
sg12
F0.0
sI61961025073
F0.0004238800642512939
sI61964961871
F0.0
sg15
F0.0002900232018561485
sI61965020015
F0.0
sg18
F0.0
sI61964943979
F0.0
sI61964943982
F0.0
sI61964943984
F0.0
sI61964943986
F0.0
sI61964943996
F0.0
sI61964961925
F0.0
sI413791240838
F0.00595663037658397
sI61964961927
F0.0
sI61964972168
F0.0
sI61964944011
F0.0
sI61964944018
F0.0
sI61961024963
F0.0050865607710155235
sI61964944027
F0.0
sI61964944035
F0.0
sI61964944038
F0.0
sI61960946349
F0.002052471890058898
sI61964944046
F0.0
sI61961025202
F0.003814920578261649
sI14720303796
F0.0
sI61964944053
F0.0
sI61964944054
F0.0
sI61964944057
F0.0
sg21
F0.0
sI61961078559
F0.0014724254863466007
sI61964944064
F0.0
sI61964944067
F0.0
sI61961024887
F0.005822773514188827
sI61961353423
F0.005956630376583968
sI61965359909
F0.0
sI413791240929
F0.0009369980367660184
sI61964944337
F0.0
sI61961078506
F0.015348920221309955
sI61964944341
F0.0
sI61965359883
F0.0
sI61965359903
F0.0
sI61961263393
F0.0
sI61961078565
F0.006982866321613421
sI61961078566
F0.002253257183651615
sI61961078573
F0.008611458147421015
sI61965359920
F0.0
sI61965019959
F0.0
sI61961024824
F0.006447438872032839
sI61965019962
F0.0
sI61965359937
F0.0
sI61961078595
F0.001561663394610031
sI61965359944
F0.0
sI61965359948
F0.0
sI61965019982
F0.0
sI61965019983
F0.0
sg24
F0.0031679457433517783
sI61965019987
F0.0
sI61961024853
F0.004127253257183652
sI61965019992
F0.0
sI61965019994
F0.0
sI61961078619
F0.0
sI61965019996
F0.0
sg27
F0.0
sI61961024868
F0.00506425129394967
sI61965020009
F0.0
sI61965359983
F0.0
sI61961024881
F0.0010931643762270215
sI61965020019
F0.0
sg30
F0.008120649651972147
sI61965020021
F0.0
sg33
F0.0
sI61965359991
F0.00138318757808317
sg36
F6.692843119757273e-05
sI61961024891
F0.008165268606103851
sI61965020029
F0.0
sI61961024911
F0.0027663751561663417
sI61961024912
F0.0018293771194003222
sI61961024927
F0.0037479921470640765
sI61961024929
F0.023402641442084503
sI61961024937
F0.006715152596823126
sI61961024938
F0.004818847046225231
sI61961024943
F0.006268963055505974
sI61965360050
F0.0
sI61961024950
F0.0
sI61961024951
F0.004104943780117795
sI61964944313
F0.0
sI61964979130
F0.0
sI61961024956
F0.002454042477244335
sI61964979139
F0.0
sI61961024968
F0.0031010173121542063
sI61964979150
F0.0
sI61964979153
F0.0
sI61964979154
F0.0
sg39
F0.005465821881135109
sI61964979158
F0.0
sI61960619991
F0.006179725147242548
sI61964979163
F0.0
sI61964944350
F0.0
sg42
F0.0
sI413787380563
F6.692843119757273e-05
ssS't_cl'
p686
(dp687
I61961025033
g3
(g47
S'\x9a \xbe)\xc90\xa0?'
p688
tp689
Rp690
sI61961025054
g3
(g47
S'\xd6\xd4\xfe \tm\x99?'
p691
tp692
Rp693
sI61960946207
g3
(g47
S'Z\x85d\xd6\x19\x80\xa3?'
p694
tp695
Rp696
sI61961025059
g3
(g47
S'g\x02{\x7f\x16!\xa2?'
p697
tp698
Rp699
sI61960946218
g3
(g47
S'\x82\xf8\x07\xa9\xc3\xfd\x9a?'
p700
tp701
Rp702
sg12
g3
(g47
S'\x00\x00\x00\x00\x00\x00\x00\x00'
p703
tp704
Rp705
sI61961025073
g3
(g47
S'\x90\xae\xb5\x93\x84\xb1\x84?'
p706
tp707
Rp708
sI61964961871
g3
(g47
S'\x00\x00\x00\x00\x00\x00\x00\x00'
p709
tp710
Rp711
sg15
g3
(g47
S'o\n\xa1\x99<Ay?'
p712
tp713
Rp714
sI61965020015
g3
(g47
S'\x00\x00\x00\x00\x00\x00\x00\x00'
p715
tp716
Rp717
sg18
g3
(g47
S'\x00\x00\x00\x00\x00\x00\x00\x00'
p718
tp719
Rp720
sI61964943979
g3
(g47
S'\x00\x00\x00\x00\x00\x00\x00\x00'
p721
tp722
Rp723
sI61964943982
g3
(g47
S'\x00\x00\x00\x00\x00\x00\x00\x00'
p724
tp725
Rp726
sI61964943984
g3
(g47
S'\x00\x00\x00\x00\x00\x00\x00\x00'
p727
tp728
Rp729
sI61964943986
g3
(g47
S'\x00\x00\x00\x00\x00\x00\x00\x00'
p730
tp731
Rp732
sI61964943996
g3
(g47
S'\x00\x00\x00\x00\x00\x00\x00\x00'
p733
tp734
Rp735
sI61964961925
g3
(g47
S'\x00\x00\x00\x00\x00\x00\x00\x00'
p736
tp737
Rp738
sI413791240838
g3
(g47
S'\x1c\x1fR\xf3q\xba\x99?'
p739
tp740
Rp741
sI61964961927
g3
(g47
S'\x00\x00\x00\x00\x00\x00\x00\x00'
p742
tp743
Rp744
sI61964972168
g3
(g47
S'\x00\x00\x00\x00\x00\x00\x00\x00'
p745
tp746
Rp747
sI61964944011
g3
(g47
S'\x00\x00\x00\x00\x00\x00\x00\x00'
p748
tp749
Rp750
sI61964944018
g3
(g47
S'\x00\x00\x00\x00\x00\x00\x00\x00'
p751
tp752
Rp753
sI61961024963
g3
(g47
S'\xc7\xf3p\xe2\x94r\x9d?'
p754
tp755
Rp756
sI61964944027
g3
(g47
S'\x00\x00\x00\x00\x00\x00\x00\x00'
p757
tp758
Rp759
sI61964944035
g3
(g47
S'\x00\x00\x00\x00\x00\x00\x00\x00'
p760
tp761
Rp762
sI61964944038
g3
(g47
S'\x00\x00\x00\x00\x00\x00\x00\x00'
p763
tp764
Rp765
sI61960946349
g3
(g47
S'\x02_\\r\xcf\x8e\x92?'
p766
tp767
Rp768
sI61964944046
g3
(g47
S'\x00\x00\x00\x00\x00\x00\x00\x00'
p769
tp770
Rp771
sI61961025202
g3
(g47
S'-\r\x07!\xb6P\x8b?'
p772
tp773
Rp774
sI14720303796
g3
(g47
S'\x00\x00\x00\x00\x00\x00\x00\x00'
p775
tp776
Rp777
sI61964944053
g3
(g47
S'\x00\x00\x00\x00\x00\x00\x00\x00'
p778
tp779
Rp780
sI61964944054
g3
(g47
S'\x00\x00\x00\x00\x00\x00\x00\x00'
p781
tp782
Rp783
sI61964944057
g3
(g47
S'\x00\x00\x00\x00\x00\x00\x00\x00'
p784
tp785
Rp786
sg21
g3
(g47
S'\x00\x00\x00\x00\x00\x00\x00\x00'
p787
tp788
Rp789
sI61961078559
g3
(g47
S'=\xce\x17\xa8\xa40\x84?'
p790
tp791
Rp792
sI61964944064
g3
(g47
S'\x00\x00\x00\x00\x00\x00\x00\x00'
p793
tp794
Rp795
sI61964944067
g3
(g47
S'\x00\x00\x00\x00\x00\x00\x00\x00'
p796
tp797
Rp798
sI61961024887
g3
(g47
S'f\xb0z\xee)=\x9b?'
p799
tp800
Rp801
sI61961353423
g3
(g47
S'\x05^\xe8\xb5@q\x96?'
p802
tp803
Rp804
sI61965359909
g3
(g47
S'\x00\x00\x00\x00\x00\x00\x00\x00'
p805
tp806
Rp807
sI413791240929
g3
(g47
S'\xd5\xb6\x04J\x05\xe0\x85?'
p808
tp809
Rp810
sI61964944337
g3
(g47
S'\x00\x00\x00\x00\x00\x00\x00\x00'
p811
tp812
Rp813
sI61961078506
g3
(g47
S'\xda\xb6(\xb3\xe8L\xa4?'
p814
tp815
Rp816
sI61964944341
g3
(g47
S'\x00\x00\x00\x00\x00\x00\x00\x00'
p817
tp818
Rp819
sI61965359883
g3
(g47
S'\x00\x00\x00\x00\x00\x00\x00\x00'
p820
tp821
Rp822
sI61965359903
g3
(g47
S'\x00\x00\x00\x00\x00\x00\x00\x00'
p823
tp824
Rp825
sI61961263393
g3
(g47
S'\x00\x00\x00\x00\x00\x00\x00\x00'
p826
tp827
Rp828
sI61961078565
g3
(g47
S'/\x0cau\t\xb0\x9a?'
p829
tp830
Rp831
sI61961078566
g3
(g47
S'\x82\xa0\xb5\xe9\\\xce\x88?'
p832
tp833
Rp834
sI61961078573
g3
(g47
S'[v\xbb\xaf\xb3\xa1\x9f?'
p835
tp836
Rp837
sI61965359920
g3
(g47
S'\x00\x00\x00\x00\x00\x00\x00\x00'
p838
tp839
Rp840
sI61965019959
g3
(g47
S'\x00\x00\x00\x00\x00\x00\x00\x00'
p841
tp842
Rp843
sI61961024824
g3
(g47
S'q\x00$>F%\x9a?'
p844
tp845
Rp846
sI61965019962
g3
(g47
S'\x00\x00\x00\x00\x00\x00\x00\x00'
p847
tp848
Rp849
sI61965359937
g3
(g47
S'\x00\x00\x00\x00\x00\x00\x00\x00'
p850
tp851
Rp852
sI61961078595
g3
(g47
S'rkD\x1c\x1f\x9e\x8e?'
p853
tp854
Rp855
sI61965359944
g3
(g47
S'\x00\x00\x00\x00\x00\x00\x00\x00'
p856
tp857
Rp858
sI61965359948
g3
(g47
S'\x00\x00\x00\x00\x00\x00\x00\x00'
p859
tp860
Rp861
sI61965019982
g3
(g47
S'\x00\x00\x00\x00\x00\x00\x00\x00'
p862
tp863
Rp864
sI61965019983
g3
(g47
S'\x00\x00\x00\x00\x00\x00\x00\x00'
p865
tp866
Rp867
sg24
g3
(g47
S'\xd8\xdbb\x13\xe7\x07\x97?'
p868
tp869
Rp870
sI61965019987
g3
(g47
S'\x00\x00\x00\x00\x00\x00\x00\x00'
p871
tp872
Rp873
sI61961024853
g3
(g47
S'\x0c%\xa7"\xafJ\x9b?'
p874
tp875
Rp876
sI61965019992
g3
(g47
S'\x00\x00\x00\x00\x00\x00\x00\x00'
p877
tp878
Rp879
sI61965019994
g3
(g47
S'\x00\x00\x00\x00\x00\x00\x00\x00'
p880
tp881
Rp882
sI61961078619
g3
(g47
S'\x00\x00\x00\x00\x00\x00\x00\x00'
p883
tp884
Rp885
sI61965019996
g3
(g47
S'\x00\x00\x00\x00\x00\x00\x00\x00'
p886
tp887
Rp888
sg27
g3
(g47
S'\x00\x00\x00\x00\x00\x00\x00\x00'
p889
tp890
Rp891
sI61961024868
g3
(g47
S'\x91\xb5\x04\xb2MH\x9a?'
p892
tp893
Rp894
sI61965020009
g3
(g47
S'\x00\x00\x00\x00\x00\x00\x00\x00'
p895
tp896
Rp897
sI61965359983
g3
(g47
S'\x00\x00\x00\x00\x00\x00\x00\x00'
p898
tp899
Rp900
sI61961024881
g3
(g47
S'\x8e&\xadQ\xecs\x81?'
p901
tp902
Rp903
sI61965020019
g3
(g47
S'\x00\x00\x00\x00\x00\x00\x00\x00'
p904
tp905
Rp906
sg30
g3
(g47
S'\xb5[E\xe7\x8dX\x9b?'
p907
tp908
Rp909
sI61965020021
g3
(g47
S'\x00\x00\x00\x00\x00\x00\x00\x00'
p910
tp911
Rp912
sg33
g3
(g47
S'\x00\x00\x00\x00\x00\x00\x00\x00'
p913
tp914
Rp915
sI61965359991
g3
(g47
S'\xe4\xe5\xa5\xb0m5\x82?'
p916
tp917
Rp918
sg36
g3
(g47
S'K\xa9V\xf7D\xafl?'
p919
tp920
Rp921
sI61961024891
g3
(g47
S'R\xd9\xe3\xec\xba\x98\xa1?'
p922
tp923
Rp924
sI61965020029
g3
(g47
S'\x00\x00\x00\x00\x00\x00\x00\x00'
p925
tp926
Rp927
sI61961024911
g3
(g47
S'\x1aFn\xd0X\xed\x90?'
p928
tp929
Rp930
sI61961024912
g3
(g47
S'\x16\x95\xf3\xc1\x18\xe1\x92?'
p931
tp932
Rp933
sI61961024927
g3
(g47
S'\xc7\x82.+\xfb\xe5\x97?'
p934
tp935
Rp936
sI61961024929
g3
(g47
S'i\xc2\x06C\xfd\x93\xa8?'
p937
tp938
Rp939
sI61961024937
g3
(g47
S'\xf5\x18\xbd\x97\x15\x04\x9d?'
p940
tp941
Rp942
sI61961024938
g3
(g47
S'\x02\xae\x00hA\xe1\x97?'
p943
tp944
Rp945
sI61961024943
g3
(g47
S'\x8e\xd7\xf6\x91F\x0e\x9b?'
p946
tp947
Rp948
sI61965360050
g3
(g47
S'\x00\x00\x00\x00\x00\x00\x00\x00'
p949
tp950
Rp951
sI61961024950
g3
(g47
S'\x00\x00\x00\x00\x00\x00\x00\x00'
p952
tp953
Rp954
sI61961024951
g3
(g47
S'\x9ep\xba\x8c8\xcb\x91?'
p955
tp956
Rp957
sI61964944313
g3
(g47
S'\x00\x00\x00\x00\x00\x00\x00\x00'
p958
tp959
Rp960
sI61964979130
g3
(g47
S'\x00\x00\x00\x00\x00\x00\x00\x00'
p961
tp962
Rp963
sI61961024956
g3
(g47
S't}|u{b\x92?'
p964
tp965
Rp966
sI61964979139
g3
(g47
S'\x00\x00\x00\x00\x00\x00\x00\x00'
p967
tp968
Rp969
sI61961024968
g3
(g47
S':DD6\x1e.\x95?'
p970
tp971
Rp972
sI61964979150
g3
(g47
S'\x00\x00\x00\x00\x00\x00\x00\x00'
p973
tp974
Rp975
sI61964979153
g3
(g47
S'\x00\x00\x00\x00\x00\x00\x00\x00'
p976
tp977
Rp978
sI61964979154
g3
(g47
S'\x00\x00\x00\x00\x00\x00\x00\x00'
p979
tp980
Rp981
sg39
g3
(g47
S'$\xa9A\xdc\xb4\xf5\x82?'
p982
tp983
Rp984
sI61964979158
g3
(g47
S'\x00\x00\x00\x00\x00\x00\x00\x00'
p985
tp986
Rp987
sI61960619991
g3
(g47
S'D\x86p\x03\xb9\xbe\x9b?'
p988
tp989
Rp990
sI61964979163
g3
(g47
S'\x00\x00\x00\x00\x00\x00\x00\x00'
p991
tp992
Rp993
sI61964944350
g3
(g47
S'\x00\x00\x00\x00\x00\x00\x00\x00'
p994
tp995
Rp996
sg42
g3
(g47
S'\x00\x00\x00\x00\x00\x00\x00\x00'
p997
tp998
Rp999
sI413787380563
g3
(g47
S'\x07\x9a\xce\x8fWi,?'
p1000
tp1001
Rp1002
ssS'avg_cl'
p1003
(dp1004
I61961025033
F0.01773629537352584
sI61961025054
F0.012259814813846357
sI61960946207
F0.02204069614047931
sI61961025059
F0.02060400774710884
sI61960946218
F0.013566308839448748
sg12
F0.0
sI61961025073
F0.0015223463384438616
sI61964961871
F0.0
sg15
F0.0009115364146958164
sI61965020015
F0.0
sg18
F0.0
sI61964943979
F0.0
sI61964943982
F0.0
sI61964943984
F0.0
sI61964943986
F0.0
sI61964943996
F0.0
sI61964961925
F0.0
sI413791240838
F0.010571745516813329
sI61964961927
F0.0
sI61964972168
F0.0
sI61964944011
F0.0
sI61964944018
F0.0
sI61961024963
F0.014582193563330265
sI61964944027
F0.0
sI61964944035
F0.0
sI61964944038
F0.0
sI61960946349
F0.00421632591374192
sI61964944046
F0.0
sI61961025202
F0.004680308805847118
sI14720303796
F0.0
sI61964944053
F0.0
sI61964944054
F0.0
sI61964944057
F0.0
sg21
F0.0
sI61961078559
F0.0028589708545380494
sI61964944064
F0.0
sI61964944067
F0.0
sI61961024887
F0.012713429567495054
sI61961353423
F0.010367117578657593
sI61965359909
F0.0
sI413791240929
F0.0037595882635875493
sI61964944337
F0.0
sI61961078506
F0.023049248843615075
sI61964944341
F0.0
sI61965359883
F0.0
sI61965359903
F0.0
sI61961263393
F0.0
sI61961078565
F0.01193330856465971
sI61961078566
F0.004771850309329934
sI61961078573
F0.015148296958229357
sI61965359920
F0.0
sI61965019959
F0.0
sI61961024824
F0.01188934141232126
sI61965019962
F0.0
sI61965359937
F0.0
sI61961078595
F0.005768198346192932
sI61965359944
F0.0
sI61965359948
F0.0
sI61965019982
F0.0
sI61965019983
F0.0
sg24
F0.008319938563696037
sI61965019987
F0.0
sI61961024853
F0.010385329369002112
sI61965019992
F0.0
sI61965019994
F0.0
sI61961078619
F0.0
sI61965019996
F0.0
sg27
F0.0
sI61961024868
F0.011621746028131345
sI61965020009
F0.0
sI61965359983
F0.0
sI61961024881
F0.0020331153292293624
sI61965020019
F0.0
sg30
F0.013648954889586373
sI61965020021
F0.0
sg33
F0.0
sI61965359991
F0.0021882666615167757
sg36
F0.0001577049240862346
sI61961024891
F0.018515277944315307
sI61965020029
F0.0
sI61961024911
F0.006761993185442544
sI61961024912
F0.0049100332464602076
sI61961024927
F0.009850169745721662
sI61961024929
F0.02900953915335493
sI61961024937
F0.012315422117959239
sI61961024938
F0.010183899534857965
sI61961024943
F0.012975317962558559
sI61965360050
F0.0
sI61961024950
F0.0
sI61961024951
F0.006899801778412999
sI61964944313
F0.0
sI61964979130
F0.0
sI61961024956
F0.006509099506386859
sI61964979139
F0.0
sI61961024968
F0.008158035428227163
sI61964979150
F0.0
sI61964979153
F0.0
sI61964979154
F0.0
sg39
F0.0025206488785818834
sI61964979158
F0.0
sI61960619991
F0.014231968117989359
sI61964979163
F0.0
sI61964944350
F0.0
sg42
F0.0
sI413787380563
F6.692843119757273e-05
ssS'agg_bt'
p1005
(dp1006
I61961025033
F0.002018869873808689
sI61961025054
F0.0023652976874284715
sI61960946207
F0.0012496818192247242
sI61961025059
F0.0015647748920754282
sI61960946218
F0.0009680283900277861
sg12
F0.0
sI61961025073
F0.001626752269242275
sI61964961871
F0.0
sg15
F0.0
sI61965020015
F0.0
sg18
F0.0
sI61964943979
F0.0
sI61964943982
F0.0
sI61964943984
F0.0
sI61964943986
F0.0
sI61964943996
F0.0
sI61964961925
F0.0
sI413791240838
F0.0023738407250633304
sI61964961927
F0.0
sI61964972168
F0.0
sI61964944011
F0.0
sI61964944018
F0.0
sI61961024963
F0.0009182130986761373
sI61964944027
F0.0
sI61964944035
F0.0
sI61964944038
F0.0
sI61960946349
F0.0010518395041321739
sI61964944046
F0.0
sI61961025202
F0.004613021148215323
sI14720303796
F0.0
sI61964944053
F0.0
sI61964944054
F0.0
sI61964944057
F0.0
sg21
F0.0
sI61961078559
F0.001400372820275733
sI61964944064
F0.0
sI61964944067
F0.0
sI61961024887
F0.0007933523092760564
sI61961353423
F0.0017860837114452692
sI61965359909
F0.0
sI413791240929
F0.00015478367676035598
sI61964944337
F0.0
sI61961078506
F0.0013032977903644006
sI61964944341
F0.0
sI61965359883
F0.0
sI61965359903
F0.0
sI61961263393
F0.0
sI61961078565
F0.01009549293187237
sI61961078566
F0.00018866605031509065
sI61961078573
F0.005807580793746821
sI61965359920
F0.0
sI61965019959
F0.0
sI61961024824
F0.0015382246571277942
sI61965019962
F0.0
sI61965359937
F0.0
sI61961078595
F0.0003593359175883448
sI61965359944
F0.0
sI61965359948
F0.0
sI61965019982
F0.0
sI61965019983
F0.0
sg24
F0.0004908906897027624
sI61965019987
F0.0
sI61961024853
F0.00108026747617883
sI61965019992
F0.0
sI61965019994
F0.0
sI61961078619
F0.0
sI61965019996
F0.0
sg27
F0.0
sI61961024868
F0.0021304610163780813
sI61965020009
F0.0
sI61965359983
F0.0
sI61961024881
F0.0024278512749386534
sI61965020019
F0.0
sg30
F0.0032276895103328005
sI61965020021
F0.0
sg33
F0.0
sI61965359991
F0.0008815954811100444
sg36
F8.401792382374907e-05
sI61961024891
F0.003976124813747674
sI61965020029
F0.0
sI61961024911
F0.0019353944315012783
sI61961024912
F0.002135361916205709
sI61961024927
F0.0014451812249281896
sI61961024929
F0.02552300431098138
sI61961024937
F0.004208569651610297
sI61961024938
F0.0004349978351704903
sI61961024943
F0.0013212292049919825
sI61965360050
F0.0
sI61961024950
F0.0
sI61961024951
F0.0033599349405152687
sI61964944313
F0.0
sI61964979130
F0.0
sI61961024956
F0.0005126307412970045
sI61964979139
F0.0
sI61961024968
F0.0008542995637804337
sI61964979150
F0.0
sI61964979153
F0.0
sI61964979154
F0.0
sg39
F0.00042575749493225227
sI61964979158
F0.0
sI61960619991
F0.0006950870406165422
sI61964979163
F0.0
sI61964944350
F0.0
sg42
F0.0
sI413787380563
F0.0
ssS'agg_deg'
p1007
(dp1008
I61961025033
F0.25961538461538464
sI61961025054
F0.16346153846153846
sI61960946207
F0.20192307692307693
sI61961025059
F0.2403846153846154
sI61960946218
F0.20192307692307693
sg12
F0.0
sI61961025073
F0.10576923076923078
sI61964961871
F0.0
sg15
F0.057692307692307696
sI61965020015
F0.0
sg18
F0.0
sI61964943979
F0.0
sI61964943982
F0.0
sI61964943984
F0.0
sI61964943986
F0.0
sI61964943996
F0.0
sI61964961925
F0.0
sI413791240838
F0.23076923076923078
sI61964961927
F0.0
sI61964972168
F0.0
sI61964944011
F0.0
sI61964944018
F0.0
sI61961024963
F0.19230769230769232
sI61964944027
F0.0
sI61964944035
F0.0
sI61964944038
F0.0
sI61960946349
F0.15384615384615385
sI61964944046
F0.0
sI61961025202
F0.11538461538461539
sI14720303796
F0.0
sI61964944053
F0.0
sI61964944054
F0.0
sI61964944057
F0.0
sg21
F0.0
sI61961078559
F0.04807692307692308
sI61964944064
F0.0
sI61964944067
F0.0
sI61961024887
F0.1826923076923077
sI61961353423
F0.25961538461538464
sI61965359909
F0.0
sI413791240929
F0.11538461538461539
sI61964944337
F0.0
sI61961078506
F0.23076923076923078
sI61964944341
F0.0
sI61965359883
F0.0
sI61965359903
F0.0
sI61961263393
F0.0
sI61961078565
F0.2884615384615385
sI61961078566
F0.10576923076923078
sI61961078573
F0.3076923076923077
sI61965359920
F0.0
sI61965019959
F0.0
sI61961024824
F0.23076923076923078
sI61965019962
F0.0
sI61965359937
F0.0
sI61961078595
F0.06730769230769232
sI61965359944
F0.0
sI61965359948
F0.0
sI61965019982
F0.0
sI61965019983
F0.0
sg24
F0.17307692307692307
sI61965019987
F0.0
sI61961024853
F0.25
sI61965019992
F0.0
sI61965019994
F0.0
sI61961078619
F0.0
sI61965019996
F0.0
sg27
F0.0
sI61961024868
F0.23076923076923078
sI61965020009
F0.0
sI61965359983
F0.0
sI61961024881
F0.057692307692307696
sI61965020019
F0.0
sg30
F0.25961538461538464
sI61965020021
F0.0
sg33
F0.0
sI61965359991
F0.07692307692307693
sg36
F0.028846153846153848
sI61961024891
F0.16346153846153846
sI61965020029
F0.0
sI61961024911
F0.23076923076923078
sI61961024912
F0.17307692307692307
sI61961024927
F0.22115384615384617
sI61961024929
F0.375
sI61961024937
F0.2980769230769231
sI61961024938
F0.20192307692307693
sI61961024943
F0.1826923076923077
sI61965360050
F0.0
sI61961024950
F0.0
sI61961024951
F0.13461538461538464
sI61964944313
F0.0
sI61964979130
F0.0
sI61961024956
F0.17307692307692307
sI61964979139
F0.0
sI61961024968
F0.125
sI61964979150
F0.0
sI61964979153
F0.0
sI61964979154
F0.0
sg39
F0.08653846153846154
sI61964979158
F0.0
sI61960619991
F0.17307692307692307
sI61964979163
F0.0
sI61964944350
F0.0
sg42
F0.0
sI413787380563
F0.009615384615384616
ss.